
/mnt/users/ssd1/no_backup/wysem/black-parrot/black-parrot-phd/black-parrot/bp_top/syn/results/vcs/bp_tethered.e_bp_default_cfg.none.sim.bp-tests.hello_world/prog.riscv:     file format elf64-littleriscv

SYMBOL TABLE:
0000000080000000 l    d  .text	0000000000000000 .text
0000000080005820 l    d  .rodata	0000000000000000 .rodata
0000000080005900 l    d  .init_array	0000000000000000 .init_array
0000000080005910 l    d  .fini_array	0000000000000000 .fini_array
0000000080005918 l    d  .eh_frame	0000000000000000 .eh_frame
0000000080005920 l    d  .data	0000000000000000 .data
00000000800086c0 l    d  .got	0000000000000000 .got
00000000800086d0 l    d  .got.plt	0000000000000000 .got.plt
0000000080100000 l    d  .sdata	0000000000000000 .sdata
0000000080200030 l    d  .sbss	0000000000000000 .sbss
0000000080200050 l    d  .bss	0000000000000000 .bss
0000000000000000 l    d  .riscv.attributes	0000000000000000 .riscv.attributes
0000000000000000 l    d  .comment	0000000000000000 .comment
0000000000000000 l    df *ABS*	0000000000000000 crt0.o
000000008000008c l       .text	0000000000000000 init_hart0
000000008000007e l       .text	0000000000000000 wait_for_sync
00000000800000c8 l       .text	0000000000000000 init_hartn
0000000000000000 l    df *ABS*	0000000000000000 exception.o
0000000000000000 l    df *ABS*	0000000000000000 atomics.o
0000000000000000 l    df *ABS*	0000000000000000 muldiv.o
0000000000000000 l    df *ABS*	0000000000000000 crtstuff.c
0000000080005918 l     O .eh_frame	0000000000000000 __EH_FRAME_BEGIN__
00000000800000ee l     F .text	0000000000000000 __do_global_dtors_aux
0000000080200050 l     O .bss	0000000000000001 completed.1
0000000080005910 l     O .fini_array	0000000000000000 __do_global_dtors_aux_fini_array_entry
0000000080000126 l     F .text	0000000000000000 frame_dummy
0000000080200058 l     O .bss	0000000000000030 object.0
0000000080005908 l     O .init_array	0000000000000000 __frame_dummy_init_array_entry
0000000000000000 l    df *ABS*	0000000000000000 hello_world.c
0000000000000000 l    df *ABS*	0000000000000000 bp_l2_cache.c
0000000000000000 l    df *ABS*	0000000000000000 bp_trap.c
0000000080007980 l     O .data	0000000000000080 exception_handler
0000000080007a00 l     O .data	0000000000000060 interrupt_handler
0000000000000000 l    df *ABS*	0000000000000000 bp_utils.c
0000000000000000 l    df *ABS*	0000000000000000 bsg_newlib_intf.c
0000000000000000 l    df *ABS*	0000000000000000 emulation.c
0000000080007a60 l     O .data	0000000000000100 amow_jt
0000000080007b60 l     O .data	0000000000000100 amod_jt
0000000080007ca0 l     O .data	0000000000000040 amo_jt
0000000080007c60 l     O .data	0000000000000040 mul_jt
0000000000000000 l    df *ABS*	0000000000000000 atexit.c
0000000000000000 l    df *ABS*	0000000000000000 exit.c
0000000000000000 l    df *ABS*	0000000000000000 fini.c
0000000000000000 l    df *ABS*	0000000000000000 impure.c
0000000080007ce0 l     O .data	00000000000001d0 impure_data
0000000000000000 l    df *ABS*	0000000000000000 init.c
0000000000000000 l    df *ABS*	0000000000000000 lib_a-memset.o
0000000000000000 l    df *ABS*	0000000000000000 __atexit.c
0000000000000000 l    df *ABS*	0000000000000000 __call_atexit.c
0000000080004716 l     F .text	0000000000000012 register_fini
0000000000000000 l    df *ABS*	0000000000000000 sys_exit.c
0000000000000000 l    df *ABS*	0000000000000000 sysclose.c
0000000000000000 l    df *ABS*	0000000000000000 closer.c
0000000000000000 l    df *ABS*	0000000000000000 reent.c
0000000000000000 l    df *ABS*	0000000000000000 mallocr.c
0000000000000000 l    df *ABS*	0000000000000000 mallocr.c
0000000000000000 l    df *ABS*	0000000000000000 mlock.c
0000000000000000 l    df *ABS*	0000000000000000 sbrkr.c
0000000000000000 l    df *ABS*	0000000000000000 sys_close.c
0000000000000000 l    df *ABS*	0000000000000000 sys_sbrk.c
0000000000000000 l    df *ABS*	0000000000000000 dramfs_fdtable.c
0000000080200088 l     O .bss	0000000000000640 dramfs_fdtable
0000000000000000 l    df *ABS*	0000000000000000 lfs.c
0000000080001270 l     F .text	0000000000000010 lfs_bd_erase
0000000080001280 l     F .text	0000000000000034 lfs_alloc_lookahead
00000000800012b4 l     F .text	00000000000000ba lfs_dir_fromle32
000000008000136e l     F .text	00000000000000ba lfs_dir_tole32
0000000080001428 l     F .text	000000000000005e lfs_entry_fromle32
0000000080001486 l     F .text	000000000000005e lfs_entry_tole32
00000000800014e4 l     F .text	0000000000000162 lfs_cache_read
0000000080001646 l     F .text	000000000000001c lfs_bd_read
0000000080001662 l     F .text	0000000000000170 lfs_dir_fetch
00000000800017d2 l     F .text	00000000000000ee lfs_dir_next
00000000800018c0 l     F .text	00000000000000c6 lfs_moved
0000000080001986 l     F .text	00000000000000ec lfs_parent
0000000080001a72 l     F .text	00000000000000d6 lfs_pred
0000000080001b48 l     F .text	0000000000000072 lfs_cache_cmp
0000000080001bba l     F .text	00000000000001ce lfs_dir_find
0000000080001d88 l     F .text	000000000000003a lfs_deinit
0000000080001dc2 l     F .text	00000000000000bc lfs_ctz_index
0000000080001e7e l     F .text	0000000000000102 lfs_ctz_traverse
0000000080001f80 l     F .text	000000000000008c lfs_init
000000008000200c l     F .text	00000000000001bc lfs_ctz_find
00000000800021c8 l     F .text	000000000000008e lfs_cache_flush
0000000080002256 l     F .text	0000000000000146 lfs_cache_prog
0000000080002a32 l     F .text	00000000000000de lfs_alloc
0000000080002b10 l     F .text	0000000000000094 lfs_dir_alloc
0000000080002ba4 l     F .text	00000000000000f8 lfs_file_relocate
00000000800030ce l     F .text	000000000000011a lfs_file_flush
0000000080003c8a l     F .text	000000000000014c lfs_dir_remove
00000000800035fa l     F .text	0000000000000408 lfs_dir_commit
0000000080003a02 l     F .text	0000000000000064 lfs_dir_update
0000000080003b4e l     F .text	000000000000013c lfs_dir_append
0000000000000000 l    df *ABS*	0000000000000000 lfs_util.c
0000000080005888 l     O .rodata	0000000000000040 rtable.0
0000000000000000 l    df *ABS*	0000000000000000 lfs_mem.c
0000000000000000 l    df *ABS*	0000000000000000 lfs_bd.c
0000000000000000 l    df *ABS*	0000000000000000 dramfs_fs.c
0000000000000000 l    df *ABS*	0000000000000000 errno.c
0000000000000000 l    df *ABS*	0000000000000000 malloc.c
0000000000000000 l    df *ABS*	0000000000000000 memcmp.c
0000000000000000 l    df *ABS*	0000000000000000 memcpy.c
0000000000000000 l    df *ABS*	0000000000000000 strchr.c
0000000000000000 l    df *ABS*	0000000000000000 strcspn.c
0000000000000000 l    df *ABS*	0000000000000000 strlen.c
0000000000000000 l    df *ABS*	0000000000000000 strspn.c
0000000000000000 l    df *ABS*	0000000000000000 sysopen.c
0000000000000000 l    df *ABS*	0000000000000000 openr.c
0000000000000000 l    df *ABS*	0000000000000000 sys_open.c
0000000000000000 l    df *ABS*	0000000000000000 crtstuff.c
0000000080005918 l     O .eh_frame	0000000000000000 __FRAME_END__
0000000080005918 l       .fini_array	0000000000000000 __fini_array_end
0000000080005910 l       .fini_array	0000000000000000 __fini_array_start
0000000080005910 l       .init_array	0000000000000000 __init_array_end
00000000800058ff l       .init_array	0000000000000000 __preinit_array_end
00000000800086c0 l     O .got	0000000000000000 _GLOBAL_OFFSET_TABLE_
0000000080005900 l       .init_array	0000000000000000 __init_array_start
00000000800058ff l       .init_array	0000000000000000 __preinit_array_start
0000000080100000  w      .sdata	0000000000000000 _argv
000000008000239c g     F .text	000000000000005c lfs_dir_open
000000008000486e g     F .text	0000000000000060 cleanup_glue
00000000800025ce g     F .text	0000000000000004 lfs_file_tell
00000000800009ea  w    F .text	0000000000000010 dramfs_fs_init
0000000080003dd6 g     F .text	0000000000000202 lfs_format
0000000080002536 g     F .text	000000000000002a lfs_dir_rewind
0000000080000310 g       .text	0000000000000000 amo_maxuw
00000000800003a8 g       .text	0000000000000000 amo_minuw
0000000080000c76 g     F .text	0000000000000022 dramfs_sendchar
0000000080000230 g       .text	0000000000000000 amo_andd
0000000080008ee0 g       .sdata	0000000000000000 __global_pointer$
0000000080005920 g       .data	0000000000000000 _fdata
0000000080005304 g     F .text	0000000000000002 __malloc_unlock
0000000080001062 g       .text	0000000000000000 mul_mulhu
0000000080003328 g     F .text	000000000000004e lfs_file_seek
0000000080002834 g     F .text	0000000000000010 lfs_unmount
0000000080005376 g     F .text	000000000000000a __errno
000000008000451c g     F .text	000000000000002c lfs_erase
00000000800042be g     F .text	00000000000001ae lfs_rename
0000000080200030 g     O .sbss	0000000000000004 errno
00000000800058ff g       .rodata	0000000000000000 _etext
0000000080100000  w      .sdata	0000000000000000 _gp
0000000080000ba6 g     F .text	0000000000000046 bp_cget
0000000080002560 g     F .text	000000000000006e lfs_dir_seek
0000000080007920  w    O .data	0000000000000060 dramfs_fs_cfg
00000000800053f0 g     F .text	00000000000000e4 memcpy
0000000080005920  w    O .data	0000000000002000 lfs_mem
00000000800044b8 g     F .text	0000000000000032 lfs_read
00000000800004a6 g     F .text	0000000000000072 l2cache_ainv
0000000080000ebc g       .text	000000000000000a __mtvec_handler
0000000080002c9c g     F .text	0000000000000432 lfs_file_write
0000000080003376 g     F .text	000000000000001e lfs_file_rewind
0000000080000c98 g     F .text	0000000000000018 dramfs_getchar
0000000080000916 g     F .text	00000000000000d4 bp_trap_handler
0000000080000b06 g     F .text	0000000000000064 bp_hprint_uint64
0000000080000b6a g     F .text	000000000000003c bp_print_string
0000000080000a14 g     F .text	0000000000000046 bp_barrier_end
0000000080005380 g     F .text	000000000000000e malloc
0000000080000518 g     F .text	000000000000007e l2cache_alock
0000000080000c0e g     F .text	000000000000001a bp_param_get
0000000080000204 g       .text	0000000000000000 amo_addd
0000000080000bec g     F .text	0000000000000022 bp_panic
0000000080200048 g     O .sbss	0000000000000008 __malloc_top_pad
0000000080005306 g     F .text	0000000000000038 _sbrk_r
000000008000025c g       .text	0000000000000000 amo_ord
0000000080200040 g     O .sbss	0000000000000008 __malloc_max_sbrked_mem
0000000080200020 g     O .sdata	0000000000000008 heap_ptr
0000000080200028 g     O .sdata	0000000000000008 _global_impure_ptr
000000008000461e g     F .text	000000000000006a __libc_init_array
0000000080001150 g     F .text	0000000000000022 dramfs_init_fdtable
000000008000578e g     F .text	000000000000008e _open
0000000080005364 g     F .text	0000000000000012 _sbrk
00000000800040a2 g     F .text	000000000000017e lfs_file_opencfg
00000000802006c8  w    O .bss	0000000000000060 dramfs_fs
0000000080001208 g     F .text	0000000000000014 dramfs_get_file
0000000080000e86 g     F .text	0000000000000036 bp_unhandled_trap_abort
000000008000101e g       .text	0000000000000000 mul_mulhsu
0000000080003394 g     F .text	00000000000000d0 lfs_file_truncate
00000000800007e2 g     F .text	00000000000000a6 l2cache_tagst
00000000800006a6 g     F .text	000000000000009e l2cache_taglv
00000000800045e6 g     F .text	0000000000000038 __libc_fini_array
000000008000121c g     F .text	0000000000000054 dramfs_free_fd
00000000800048ce g     F .text	00000000000000f6 _reclaim_reent
0000000080200000 g     O .sdata	0000000000000008 lfs_ptr
0000000080004548 g     F .text	0000000000000004 lfs_sync
00000000800025d2 g     F .text	0000000000000020 lfs_file_size
000000008000029e g       .text	0000000000000000 amo_maxd
0000000080000336 g       .text	0000000000000000 amo_mind
00000000800001dc g       .text	0000000000000000 amo_swapd
00000000800001ca g       .text	0000000000000000 amo_swapw
0000000080004a9e g     F .text	000000000000024c _free_r
0000000080004728 g     F .text	00000000000000e0 __call_exitprocs
000000008f000000 g       *ABS*	0000000000000000 _sp
0000000080000000 g       .text	0000000000000000 _ftext
0000000080200010 g     O .sdata	0000000000000008 __malloc_sbrk_base
0000000080000000 g     F .text	00000000000000e8 _start
000000008000021a g       .text	0000000000000000 amo_andw
0000000080000c28 g     F .text	0000000000000028 dramfs_init
0000000080005750 g     F .text	000000000000003e _open_r
0000000080004688 g     F .text	000000000000008e __register_exitproc
0000000080000434 g     F .text	0000000000000072 l2cache_aflinv
0000000080002418 g     F .text	000000000000011a lfs_dir_read
0000000080200728 g     O .bss	0000000000000028 __malloc_current_mallinfo
0000000080003a66 g     F .text	0000000000000094 lfs_file_sync
0000000080000608 g     F .text	000000000000009e l2cache_tagfl
00000000800011c2 g     F .text	0000000000000046 dramfs_reserve_fd
0000000080004836 g     F .text	0000000000000038 _close_r
000000008000539c g     F .text	0000000000000054 memcmp
0000000080002844 g     F .text	00000000000001ee lfs_traverse
0000000080001172 g     F .text	0000000000000034 dramfs_check_fd
0000000080003fd8 g     F .text	00000000000000ca lfs_mkdir
0000000080007eb0 g     O .data	0000000000000810 __malloc_av_
0000000080003afa g     F .text	0000000000000054 lfs_file_close
0000000080005302 g     F .text	0000000000000002 __malloc_lock
0000000080000ae6 g     F .text	0000000000000020 bp_cprint
0000000080200050 g       .bss	0000000000000000 __bss_start
00000000800010a6 g     F .text	00000000000000aa memset
0000000080000146 g     F .text	0000000000000084 main
00000000800011a6 g     F .text	000000000000001c dramfs_nonblock_fd
00000000800044ea g     F .text	0000000000000032 lfs_prog
0000000080200038 g     O .sbss	0000000000000008 __malloc_max_total_mem
00000000800002ea g       .text	0000000000000000 amo_maxud
0000000080000382 g       .text	0000000000000000 amo_minud
0000000080004cea g     F .text	0000000000000618 _malloc_r
0000000080002532 g     F .text	0000000000000004 lfs_dir_tell
00000000800049c4 g     F .text	00000000000000da _malloc_trim_r
0000000080000744 g     F .text	000000000000009e l2cache_tagla
0000000080000c50 g     F .text	0000000000000026 dramfs_exit
00000000800003ce g     F .text	0000000000000066 l2cache_afl
00000000800025f2 g     F .text	0000000000000096 lfs_stat
00000000800045ba g     F .text	000000000000000a atexit
0000000080005600 g     F .text	000000000000004c strcspn
0000000080000a5a g     F .text	0000000000000032 bp_finish
0000000080200008 g     O .sdata	0000000000000008 _impure_ptr
0000000080000246 g       .text	0000000000000000 amo_orw
0000000080000288 g       .text	0000000000000000 amo_xord
00000000800001ee g       .text	0000000000000000 amo_addw
0000000080000272 g       .text	0000000000000000 amo_xorw
000000008000446c g     F .text	0000000000000046 lfs_crc
0000000080200030 g       .sdata	0000000000000000 _edata
0000000080200750 g       .bss	0000000000000000 _end
0000000080000a8c g     F .text	000000000000005a bp_hprint
0000000080004230 g     F .text	000000000000008e lfs_remove
0000000080200000  w      .sdata	0000000000000000 _sync
0000000080004220 g     F .text	0000000000000010 lfs_file_open
0000000080000888 g     F .text	000000000000008e register_trap_handler
0000000080200018 g     O .sdata	0000000000000008 __malloc_trim_threshold
00000000800045c4 g     F .text	0000000000000022 exit
0000000080000d0e g     F .text	0000000000000178 bp_emulate_illegal_instruction
0000000080000596 g     F .text	0000000000000072 l2cache_aunlock
0000000080004808 g     F .text	0000000000000022 _exit
0000000080002688 g     F .text	00000000000001ac lfs_mount
00000000800056ee g     F .text	0000000000000034 strspn
000000008000564c g     F .text	00000000000000a2 strlen
0000000080005722 g     F .text	000000000000002e open
0000000080100000  w      .sdata	0000000000000004 _argc
00000000800054d4 g     F .text	000000000000012c strchr
00000000800031e8 g     F .text	0000000000000140 lfs_file_read
00000000800023f8 g     F .text	0000000000000020 lfs_dir_close
00000000800009fa g     F .text	000000000000001a bp_get_hart
00000000800002c4 g       .text	0000000000000000 amo_maxw
000000008000035c g       .text	0000000000000000 amo_minw
0000000080003464 g     F .text	0000000000000196 lfs_deorphan
0000000080200030 g       .sbss	0000000000000000 _fbss
000000008000482a g     F .text	000000000000000c close
0000000080000fda g       .text	0000000000000000 mul_mulh
000000008000533e g     F .text	0000000000000026 _close
000000008000538e g     F .text	000000000000000e free
0000000080000cb0 g     F .text	000000000000005e bp_dump_trap_context



Disassembly of section .text:

0000000080000000 <_start>:
    80000000:	00100197          	auipc	gp,0x100
    80000004:	00018193          	mv	gp,gp
    80000008:	0f000117          	auipc	sp,0xf000
    8000000c:	ff810113          	add	sp,sp,-8 # 8f000000 <_sp>
    80000010:	f14022f3          	csrr	t0,mhartid
    80000014:	02b6                	sll	t0,t0,0xd
    80000016:	40510133          	sub	sp,sp,t0
    8000001a:	34011073          	csrw	mscratch,sp
    8000001e:	4285                	li	t0,1
    80000020:	02b2                	sll	t0,t0,0xc
    80000022:	40510133          	sub	sp,sp,t0
    80000026:	00001297          	auipc	t0,0x1
    8000002a:	e9628293          	add	t0,t0,-362 # 80000ebc <__mtvec_handler>
    8000002e:	30529073          	csrw	mtvec,t0
    80000032:	6289                	lui	t0,0x2
    80000034:	3002a073          	csrs	mstatus,t0
    80000038:	00305073          	csrw	fcsr,0
    8000003c:	4081                	li	ra,0
    8000003e:	4201                	li	tp,0
    80000040:	4281                	li	t0,0
    80000042:	4301                	li	t1,0
    80000044:	4381                	li	t2,0
    80000046:	4401                	li	s0,0
    80000048:	4481                	li	s1,0
    8000004a:	4501                	li	a0,0
    8000004c:	4581                	li	a1,0
    8000004e:	4601                	li	a2,0
    80000050:	4681                	li	a3,0
    80000052:	4701                	li	a4,0
    80000054:	4781                	li	a5,0
    80000056:	4801                	li	a6,0
    80000058:	4881                	li	a7,0
    8000005a:	4901                	li	s2,0
    8000005c:	4981                	li	s3,0
    8000005e:	4a01                	li	s4,0
    80000060:	4a81                	li	s5,0
    80000062:	4b01                	li	s6,0
    80000064:	4b81                	li	s7,0
    80000066:	4c01                	li	s8,0
    80000068:	4c81                	li	s9,0
    8000006a:	4d01                	li	s10,0
    8000006c:	4d81                	li	s11,0
    8000006e:	4e01                	li	t3,0
    80000070:	4e81                	li	t4,0
    80000072:	4f01                	li	t5,0
    80000074:	4f81                	li	t6,0
    80000076:	f14022f3          	csrr	t0,mhartid
    8000007a:	00028963          	beqz	t0,8000008c <init_hart0>

000000008000007e <wait_for_sync>:
    8000007e:	00200297          	auipc	t0,0x200
    80000082:	f822b283          	ld	t0,-126(t0) # 80200000 <lfs_ptr>
    80000086:	04029163          	bnez	t0,800000c8 <init_hartn>
    8000008a:	bfd5                	j	8000007e <wait_for_sync>

000000008000008c <init_hart0>:
    8000008c:	00200517          	auipc	a0,0x200
    80000090:	fa450513          	add	a0,a0,-92 # 80200030 <errno>
    80000094:	00200617          	auipc	a2,0x200
    80000098:	6bc60613          	add	a2,a2,1724 # 80200750 <_end>
    8000009c:	8e09                	sub	a2,a2,a0
    8000009e:	4581                	li	a1,0
    800000a0:	006010ef          	jal	800010a6 <memset>
    800000a4:	147000ef          	jal	800009ea <dramfs_fs_init>
    800000a8:	ed05                	bnez	a0,800000e0 <init_hartn+0x18>
    800000aa:	00004517          	auipc	a0,0x4
    800000ae:	53c50513          	add	a0,a0,1340 # 800045e6 <__libc_fini_array>
    800000b2:	508040ef          	jal	800045ba <atexit>
    800000b6:	568040ef          	jal	8000461e <__libc_init_array>
    800000ba:	4285                	li	t0,1
    800000bc:	00200317          	auipc	t1,0x200
    800000c0:	f4430313          	add	t1,t1,-188 # 80200000 <lfs_ptr>
    800000c4:	00533023          	sd	t0,0(t1)

00000000800000c8 <init_hartn>:
    800000c8:	00100517          	auipc	a0,0x100
    800000cc:	f3850513          	add	a0,a0,-200 # 80100000 <_argc>
    800000d0:	4108                	lw	a0,0(a0)
    800000d2:	00100597          	auipc	a1,0x100
    800000d6:	f2e58593          	add	a1,a1,-210 # 80100000 <_argc>
    800000da:	4601                	li	a2,0
    800000dc:	06a000ef          	jal	80000146 <main>
    800000e0:	4e40406f          	j	800045c4 <exit>
    800000e4:	0001                	nop
    800000e6:	bffd                	j	800000e4 <init_hartn+0x1c>
    800000e8:	557d                	li	a0,-1
    800000ea:	4da0406f          	j	800045c4 <exit>

00000000800000ee <__do_global_dtors_aux>:
    800000ee:	1141                	add	sp,sp,-16
    800000f0:	e022                	sd	s0,0(sp)
    800000f2:	00200417          	auipc	s0,0x200
    800000f6:	f5e40413          	add	s0,s0,-162 # 80200050 <completed.1>
    800000fa:	00044783          	lbu	a5,0(s0)
    800000fe:	e406                	sd	ra,8(sp)
    80000100:	ef99                	bnez	a5,8000011e <__do_global_dtors_aux+0x30>
    80000102:	00000793          	li	a5,0
    80000106:	cb89                	beqz	a5,80000118 <__do_global_dtors_aux+0x2a>
    80000108:	00006517          	auipc	a0,0x6
    8000010c:	81050513          	add	a0,a0,-2032 # 80005918 <__EH_FRAME_BEGIN__>
    80000110:	00000097          	auipc	ra,0x0
    80000114:	000000e7          	jalr	zero # 0 <_start-0x80000000>
    80000118:	4785                	li	a5,1
    8000011a:	00f40023          	sb	a5,0(s0)
    8000011e:	60a2                	ld	ra,8(sp)
    80000120:	6402                	ld	s0,0(sp)
    80000122:	0141                	add	sp,sp,16
    80000124:	8082                	ret

0000000080000126 <frame_dummy>:
    80000126:	00000793          	li	a5,0
    8000012a:	cf89                	beqz	a5,80000144 <frame_dummy+0x1e>
    8000012c:	00200597          	auipc	a1,0x200
    80000130:	f2c58593          	add	a1,a1,-212 # 80200058 <object.0>
    80000134:	00005517          	auipc	a0,0x5
    80000138:	7e450513          	add	a0,a0,2020 # 80005918 <__EH_FRAME_BEGIN__>
    8000013c:	00000317          	auipc	t1,0x0
    80000140:	00000067          	jr	zero # 0 <_start-0x80000000>
    80000144:	8082                	ret

0000000080000146 <main>:
    80000146:	1101                	add	sp,sp,-32
    80000148:	ec06                	sd	ra,24(sp)
    8000014a:	e822                	sd	s0,16(sp)
    8000014c:	1000                	add	s0,sp,32
    8000014e:	87aa                	mv	a5,a0
    80000150:	feb43023          	sd	a1,-32(s0)
    80000154:	fef42623          	sw	a5,-20(s0)
    80000158:	04800513          	li	a0,72
    8000015c:	18b000ef          	jal	80000ae6 <bp_cprint>
    80000160:	06500513          	li	a0,101
    80000164:	183000ef          	jal	80000ae6 <bp_cprint>
    80000168:	06c00513          	li	a0,108
    8000016c:	17b000ef          	jal	80000ae6 <bp_cprint>
    80000170:	06c00513          	li	a0,108
    80000174:	173000ef          	jal	80000ae6 <bp_cprint>
    80000178:	06f00513          	li	a0,111
    8000017c:	16b000ef          	jal	80000ae6 <bp_cprint>
    80000180:	02000513          	li	a0,32
    80000184:	163000ef          	jal	80000ae6 <bp_cprint>
    80000188:	05700513          	li	a0,87
    8000018c:	15b000ef          	jal	80000ae6 <bp_cprint>
    80000190:	06f00513          	li	a0,111
    80000194:	153000ef          	jal	80000ae6 <bp_cprint>
    80000198:	07200513          	li	a0,114
    8000019c:	14b000ef          	jal	80000ae6 <bp_cprint>
    800001a0:	06c00513          	li	a0,108
    800001a4:	143000ef          	jal	80000ae6 <bp_cprint>
    800001a8:	06400513          	li	a0,100
    800001ac:	13b000ef          	jal	80000ae6 <bp_cprint>
    800001b0:	02100513          	li	a0,33
    800001b4:	133000ef          	jal	80000ae6 <bp_cprint>
    800001b8:	4529                	li	a0,10
    800001ba:	12d000ef          	jal	80000ae6 <bp_cprint>
    800001be:	4781                	li	a5,0
    800001c0:	853e                	mv	a0,a5
    800001c2:	60e2                	ld	ra,24(sp)
    800001c4:	6442                	ld	s0,16(sp)
    800001c6:	6105                	add	sp,sp,32
    800001c8:	8082                	ret

00000000800001ca <amo_swapw>:
    800001ca:	100522af          	lr.w	t0,(a0)
    800001ce:	18b5232f          	sc.w	t1,a1,(a0)
    800001d2:	fe031ce3          	bnez	t1,800001ca <amo_swapw>
    800001d6:	8516                	mv	a0,t0
    800001d8:	00008067          	ret

00000000800001dc <amo_swapd>:
    800001dc:	100532af          	lr.d	t0,(a0)
    800001e0:	18b5332f          	sc.d	t1,a1,(a0)
    800001e4:	fe031ce3          	bnez	t1,800001dc <amo_swapd>
    800001e8:	8516                	mv	a0,t0
    800001ea:	00008067          	ret

00000000800001ee <amo_addw>:
    800001ee:	100522af          	lr.w	t0,(a0)
    800001f2:	00b2833b          	addw	t1,t0,a1
    800001f6:	1865232f          	sc.w	t1,t1,(a0)
    800001fa:	fe031ae3          	bnez	t1,800001ee <amo_addw>
    800001fe:	8516                	mv	a0,t0
    80000200:	00008067          	ret

0000000080000204 <amo_addd>:
    80000204:	100532af          	lr.d	t0,(a0)
    80000208:	00b28333          	add	t1,t0,a1
    8000020c:	1865332f          	sc.d	t1,t1,(a0)
    80000210:	fe031ae3          	bnez	t1,80000204 <amo_addd>
    80000214:	8516                	mv	a0,t0
    80000216:	00008067          	ret

000000008000021a <amo_andw>:
    8000021a:	100522af          	lr.w	t0,(a0)
    8000021e:	00b2f333          	and	t1,t0,a1
    80000222:	1865232f          	sc.w	t1,t1,(a0)
    80000226:	fe031ae3          	bnez	t1,8000021a <amo_andw>
    8000022a:	8516                	mv	a0,t0
    8000022c:	00008067          	ret

0000000080000230 <amo_andd>:
    80000230:	100532af          	lr.d	t0,(a0)
    80000234:	00b2f333          	and	t1,t0,a1
    80000238:	1865332f          	sc.d	t1,t1,(a0)
    8000023c:	fe031ae3          	bnez	t1,80000230 <amo_andd>
    80000240:	8516                	mv	a0,t0
    80000242:	00008067          	ret

0000000080000246 <amo_orw>:
    80000246:	100522af          	lr.w	t0,(a0)
    8000024a:	00b2e333          	or	t1,t0,a1
    8000024e:	1865232f          	sc.w	t1,t1,(a0)
    80000252:	fe031ae3          	bnez	t1,80000246 <amo_orw>
    80000256:	8516                	mv	a0,t0
    80000258:	00008067          	ret

000000008000025c <amo_ord>:
    8000025c:	100532af          	lr.d	t0,(a0)
    80000260:	00b2e333          	or	t1,t0,a1
    80000264:	1865332f          	sc.d	t1,t1,(a0)
    80000268:	fe031ae3          	bnez	t1,8000025c <amo_ord>
    8000026c:	8516                	mv	a0,t0
    8000026e:	00008067          	ret

0000000080000272 <amo_xorw>:
    80000272:	100522af          	lr.w	t0,(a0)
    80000276:	00b2c333          	xor	t1,t0,a1
    8000027a:	1865232f          	sc.w	t1,t1,(a0)
    8000027e:	fe031ae3          	bnez	t1,80000272 <amo_xorw>
    80000282:	8516                	mv	a0,t0
    80000284:	00008067          	ret

0000000080000288 <amo_xord>:
    80000288:	100532af          	lr.d	t0,(a0)
    8000028c:	00b2c333          	xor	t1,t0,a1
    80000290:	1865332f          	sc.d	t1,t1,(a0)
    80000294:	fe031ae3          	bnez	t1,80000288 <amo_xord>
    80000298:	8516                	mv	a0,t0
    8000029a:	00008067          	ret

000000008000029e <amo_maxd>:
    8000029e:	100532af          	lr.d	t0,(a0)
    800002a2:	00b2a333          	slt	t1,t0,a1
    800002a6:	40600333          	neg	t1,t1
    800002aa:	00b2c3b3          	xor	t2,t0,a1
    800002ae:	00737e33          	and	t3,t1,t2
    800002b2:	01c2ce33          	xor	t3,t0,t3
    800002b6:	19c5332f          	sc.d	t1,t3,(a0)
    800002ba:	fe0312e3          	bnez	t1,8000029e <amo_maxd>
    800002be:	8516                	mv	a0,t0
    800002c0:	00008067          	ret

00000000800002c4 <amo_maxw>:
    800002c4:	100522af          	lr.w	t0,(a0)
    800002c8:	00b2a333          	slt	t1,t0,a1
    800002cc:	4060033b          	negw	t1,t1
    800002d0:	00b2c3b3          	xor	t2,t0,a1
    800002d4:	00737e33          	and	t3,t1,t2
    800002d8:	01c2ce33          	xor	t3,t0,t3
    800002dc:	19c5232f          	sc.w	t1,t3,(a0)
    800002e0:	fe0312e3          	bnez	t1,800002c4 <amo_maxw>
    800002e4:	8516                	mv	a0,t0
    800002e6:	00008067          	ret

00000000800002ea <amo_maxud>:
    800002ea:	100532af          	lr.d	t0,(a0)
    800002ee:	00b2b333          	sltu	t1,t0,a1
    800002f2:	40600333          	neg	t1,t1
    800002f6:	00b2c3b3          	xor	t2,t0,a1
    800002fa:	00737e33          	and	t3,t1,t2
    800002fe:	01c2ce33          	xor	t3,t0,t3
    80000302:	19c5332f          	sc.d	t1,t3,(a0)
    80000306:	fe0312e3          	bnez	t1,800002ea <amo_maxud>
    8000030a:	8516                	mv	a0,t0
    8000030c:	00008067          	ret

0000000080000310 <amo_maxuw>:
    80000310:	100522af          	lr.w	t0,(a0)
    80000314:	00b2b333          	sltu	t1,t0,a1
    80000318:	4060033b          	negw	t1,t1
    8000031c:	00b2c3b3          	xor	t2,t0,a1
    80000320:	00737e33          	and	t3,t1,t2
    80000324:	01c2ce33          	xor	t3,t0,t3
    80000328:	19c5232f          	sc.w	t1,t3,(a0)
    8000032c:	fe0312e3          	bnez	t1,80000310 <amo_maxuw>
    80000330:	8516                	mv	a0,t0
    80000332:	00008067          	ret

0000000080000336 <amo_mind>:
    80000336:	100532af          	lr.d	t0,(a0)
    8000033a:	00b2a333          	slt	t1,t0,a1
    8000033e:	40600333          	neg	t1,t1
    80000342:	00b2c3b3          	xor	t2,t0,a1
    80000346:	00737e33          	and	t3,t1,t2
    8000034a:	01c5ce33          	xor	t3,a1,t3
    8000034e:	19c5332f          	sc.d	t1,t3,(a0)
    80000352:	fe0312e3          	bnez	t1,80000336 <amo_mind>
    80000356:	8516                	mv	a0,t0
    80000358:	00008067          	ret

000000008000035c <amo_minw>:
    8000035c:	100522af          	lr.w	t0,(a0)
    80000360:	00b2a333          	slt	t1,t0,a1
    80000364:	4060033b          	negw	t1,t1
    80000368:	00b2c3b3          	xor	t2,t0,a1
    8000036c:	00737e33          	and	t3,t1,t2
    80000370:	01c5ce33          	xor	t3,a1,t3
    80000374:	19c5232f          	sc.w	t1,t3,(a0)
    80000378:	fe0312e3          	bnez	t1,8000035c <amo_minw>
    8000037c:	8516                	mv	a0,t0
    8000037e:	00008067          	ret

0000000080000382 <amo_minud>:
    80000382:	100532af          	lr.d	t0,(a0)
    80000386:	00b2b333          	sltu	t1,t0,a1
    8000038a:	40600333          	neg	t1,t1
    8000038e:	00b2c3b3          	xor	t2,t0,a1
    80000392:	00737e33          	and	t3,t1,t2
    80000396:	01c5ce33          	xor	t3,a1,t3
    8000039a:	19c5332f          	sc.d	t1,t3,(a0)
    8000039e:	fe0312e3          	bnez	t1,80000382 <amo_minud>
    800003a2:	8516                	mv	a0,t0
    800003a4:	00008067          	ret

00000000800003a8 <amo_minuw>:
    800003a8:	100522af          	lr.w	t0,(a0)
    800003ac:	00b2b333          	sltu	t1,t0,a1
    800003b0:	4060033b          	negw	t1,t1
    800003b4:	00b2c3b3          	xor	t2,t0,a1
    800003b8:	00737e33          	and	t3,t1,t2
    800003bc:	01c5ce33          	xor	t3,a1,t3
    800003c0:	19c5232f          	sc.w	t1,t3,(a0)
    800003c4:	fe0312e3          	bnez	t1,800003a8 <amo_minuw>
    800003c8:	8516                	mv	a0,t0
    800003ca:	00008067          	ret

00000000800003ce <l2cache_afl>:
    800003ce:	7139                	add	sp,sp,-64
    800003d0:	fc22                	sd	s0,56(sp)
    800003d2:	0080                	add	s0,sp,64
    800003d4:	fca43423          	sd	a0,-56(s0)
    800003d8:	fe043423          	sd	zero,-24(s0)
    800003dc:	fe043023          	sd	zero,-32(s0)
    800003e0:	fc843783          	ld	a5,-56(s0)
    800003e4:	83d1                	srl	a5,a5,0x14
    800003e6:	07f7f793          	and	a5,a5,127
    800003ea:	fcf43c23          	sd	a5,-40(s0)
    800003ee:	fc843783          	ld	a5,-56(s0)
    800003f2:	83d1                	srl	a5,a5,0x14
    800003f4:	8bbd                	and	a5,a5,15
    800003f6:	fcf43823          	sd	a5,-48(s0)
    800003fa:	fd843783          	ld	a5,-40(s0)
    800003fe:	07d2                	sll	a5,a5,0x14
    80000400:	fe843703          	ld	a4,-24(s0)
    80000404:	8fd9                	or	a5,a5,a4
    80000406:	fef43423          	sd	a5,-24(s0)
    8000040a:	fd043783          	ld	a5,-48(s0)
    8000040e:	07d2                	sll	a5,a5,0x14
    80000410:	fe843703          	ld	a4,-24(s0)
    80000414:	8fd9                	or	a5,a5,a4
    80000416:	fef43423          	sd	a5,-24(s0)
    8000041a:	fc843783          	ld	a5,-56(s0)
    8000041e:	fef43023          	sd	a5,-32(s0)
    80000422:	fe843783          	ld	a5,-24(s0)
    80000426:	fe043703          	ld	a4,-32(s0)
    8000042a:	e398                	sd	a4,0(a5)
    8000042c:	0001                	nop
    8000042e:	7462                	ld	s0,56(sp)
    80000430:	6121                	add	sp,sp,64
    80000432:	8082                	ret

0000000080000434 <l2cache_aflinv>:
    80000434:	7139                	add	sp,sp,-64
    80000436:	fc22                	sd	s0,56(sp)
    80000438:	0080                	add	s0,sp,64
    8000043a:	fca43423          	sd	a0,-56(s0)
    8000043e:	fe043423          	sd	zero,-24(s0)
    80000442:	fe043023          	sd	zero,-32(s0)
    80000446:	fc843783          	ld	a5,-56(s0)
    8000044a:	83d1                	srl	a5,a5,0x14
    8000044c:	07f7f793          	and	a5,a5,127
    80000450:	fcf43c23          	sd	a5,-40(s0)
    80000454:	fc843783          	ld	a5,-56(s0)
    80000458:	83d1                	srl	a5,a5,0x14
    8000045a:	8bbd                	and	a5,a5,15
    8000045c:	fcf43823          	sd	a5,-48(s0)
    80000460:	fd843783          	ld	a5,-40(s0)
    80000464:	07d2                	sll	a5,a5,0x14
    80000466:	fe843703          	ld	a4,-24(s0)
    8000046a:	8fd9                	or	a5,a5,a4
    8000046c:	fef43423          	sd	a5,-24(s0)
    80000470:	fd043783          	ld	a5,-48(s0)
    80000474:	07d2                	sll	a5,a5,0x14
    80000476:	fe843703          	ld	a4,-24(s0)
    8000047a:	8fd9                	or	a5,a5,a4
    8000047c:	fef43423          	sd	a5,-24(s0)
    80000480:	fe843783          	ld	a5,-24(s0)
    80000484:	0087e793          	or	a5,a5,8
    80000488:	fef43423          	sd	a5,-24(s0)
    8000048c:	fc843783          	ld	a5,-56(s0)
    80000490:	fef43023          	sd	a5,-32(s0)
    80000494:	fe843783          	ld	a5,-24(s0)
    80000498:	fe043703          	ld	a4,-32(s0)
    8000049c:	e398                	sd	a4,0(a5)
    8000049e:	0001                	nop
    800004a0:	7462                	ld	s0,56(sp)
    800004a2:	6121                	add	sp,sp,64
    800004a4:	8082                	ret

00000000800004a6 <l2cache_ainv>:
    800004a6:	7139                	add	sp,sp,-64
    800004a8:	fc22                	sd	s0,56(sp)
    800004aa:	0080                	add	s0,sp,64
    800004ac:	fca43423          	sd	a0,-56(s0)
    800004b0:	fe043423          	sd	zero,-24(s0)
    800004b4:	fe043023          	sd	zero,-32(s0)
    800004b8:	fc843783          	ld	a5,-56(s0)
    800004bc:	83d1                	srl	a5,a5,0x14
    800004be:	07f7f793          	and	a5,a5,127
    800004c2:	fcf43c23          	sd	a5,-40(s0)
    800004c6:	fc843783          	ld	a5,-56(s0)
    800004ca:	83d1                	srl	a5,a5,0x14
    800004cc:	8bbd                	and	a5,a5,15
    800004ce:	fcf43823          	sd	a5,-48(s0)
    800004d2:	fd843783          	ld	a5,-40(s0)
    800004d6:	07d2                	sll	a5,a5,0x14
    800004d8:	fe843703          	ld	a4,-24(s0)
    800004dc:	8fd9                	or	a5,a5,a4
    800004de:	fef43423          	sd	a5,-24(s0)
    800004e2:	fd043783          	ld	a5,-48(s0)
    800004e6:	07d2                	sll	a5,a5,0x14
    800004e8:	fe843703          	ld	a4,-24(s0)
    800004ec:	8fd9                	or	a5,a5,a4
    800004ee:	fef43423          	sd	a5,-24(s0)
    800004f2:	fe843783          	ld	a5,-24(s0)
    800004f6:	0107e793          	or	a5,a5,16
    800004fa:	fef43423          	sd	a5,-24(s0)
    800004fe:	fc843783          	ld	a5,-56(s0)
    80000502:	fef43023          	sd	a5,-32(s0)
    80000506:	fe843783          	ld	a5,-24(s0)
    8000050a:	fe043703          	ld	a4,-32(s0)
    8000050e:	e398                	sd	a4,0(a5)
    80000510:	0001                	nop
    80000512:	7462                	ld	s0,56(sp)
    80000514:	6121                	add	sp,sp,64
    80000516:	8082                	ret

0000000080000518 <l2cache_alock>:
    80000518:	7139                	add	sp,sp,-64
    8000051a:	fc22                	sd	s0,56(sp)
    8000051c:	0080                	add	s0,sp,64
    8000051e:	fca43423          	sd	a0,-56(s0)
    80000522:	fe043423          	sd	zero,-24(s0)
    80000526:	fe043023          	sd	zero,-32(s0)
    8000052a:	fc843783          	ld	a5,-56(s0)
    8000052e:	83d1                	srl	a5,a5,0x14
    80000530:	07f7f793          	and	a5,a5,127
    80000534:	fcf43c23          	sd	a5,-40(s0)
    80000538:	fc843783          	ld	a5,-56(s0)
    8000053c:	83d1                	srl	a5,a5,0x14
    8000053e:	8bbd                	and	a5,a5,15
    80000540:	fcf43823          	sd	a5,-48(s0)
    80000544:	fd843783          	ld	a5,-40(s0)
    80000548:	07d2                	sll	a5,a5,0x14
    8000054a:	fe843703          	ld	a4,-24(s0)
    8000054e:	8fd9                	or	a5,a5,a4
    80000550:	fef43423          	sd	a5,-24(s0)
    80000554:	fd043783          	ld	a5,-48(s0)
    80000558:	07d2                	sll	a5,a5,0x14
    8000055a:	fe843703          	ld	a4,-24(s0)
    8000055e:	8fd9                	or	a5,a5,a4
    80000560:	fef43423          	sd	a5,-24(s0)
    80000564:	fe843783          	ld	a5,-24(s0)
    80000568:	0107e793          	or	a5,a5,16
    8000056c:	fef43423          	sd	a5,-24(s0)
    80000570:	fc843783          	ld	a5,-56(s0)
    80000574:	fef43023          	sd	a5,-32(s0)
    80000578:	fe043783          	ld	a5,-32(s0)
    8000057c:	0017e793          	or	a5,a5,1
    80000580:	fef43023          	sd	a5,-32(s0)
    80000584:	fe843783          	ld	a5,-24(s0)
    80000588:	fe043703          	ld	a4,-32(s0)
    8000058c:	e398                	sd	a4,0(a5)
    8000058e:	0001                	nop
    80000590:	7462                	ld	s0,56(sp)
    80000592:	6121                	add	sp,sp,64
    80000594:	8082                	ret

0000000080000596 <l2cache_aunlock>:
    80000596:	7139                	add	sp,sp,-64
    80000598:	fc22                	sd	s0,56(sp)
    8000059a:	0080                	add	s0,sp,64
    8000059c:	fca43423          	sd	a0,-56(s0)
    800005a0:	fe043423          	sd	zero,-24(s0)
    800005a4:	fe043023          	sd	zero,-32(s0)
    800005a8:	fc843783          	ld	a5,-56(s0)
    800005ac:	83d1                	srl	a5,a5,0x14
    800005ae:	07f7f793          	and	a5,a5,127
    800005b2:	fcf43c23          	sd	a5,-40(s0)
    800005b6:	fc843783          	ld	a5,-56(s0)
    800005ba:	83d1                	srl	a5,a5,0x14
    800005bc:	8bbd                	and	a5,a5,15
    800005be:	fcf43823          	sd	a5,-48(s0)
    800005c2:	fd843783          	ld	a5,-40(s0)
    800005c6:	07d2                	sll	a5,a5,0x14
    800005c8:	fe843703          	ld	a4,-24(s0)
    800005cc:	8fd9                	or	a5,a5,a4
    800005ce:	fef43423          	sd	a5,-24(s0)
    800005d2:	fd043783          	ld	a5,-48(s0)
    800005d6:	07d2                	sll	a5,a5,0x14
    800005d8:	fe843703          	ld	a4,-24(s0)
    800005dc:	8fd9                	or	a5,a5,a4
    800005de:	fef43423          	sd	a5,-24(s0)
    800005e2:	fe843783          	ld	a5,-24(s0)
    800005e6:	0107e793          	or	a5,a5,16
    800005ea:	fef43423          	sd	a5,-24(s0)
    800005ee:	fc843783          	ld	a5,-56(s0)
    800005f2:	fef43023          	sd	a5,-32(s0)
    800005f6:	fe843783          	ld	a5,-24(s0)
    800005fa:	fe043703          	ld	a4,-32(s0)
    800005fe:	e398                	sd	a4,0(a5)
    80000600:	0001                	nop
    80000602:	7462                	ld	s0,56(sp)
    80000604:	6121                	add	sp,sp,64
    80000606:	8082                	ret

0000000080000608 <l2cache_tagfl>:
    80000608:	711d                	add	sp,sp,-96
    8000060a:	eca2                	sd	s0,88(sp)
    8000060c:	1080                	add	s0,sp,96
    8000060e:	fca43423          	sd	a0,-56(s0)
    80000612:	fcb43023          	sd	a1,-64(s0)
    80000616:	fac43c23          	sd	a2,-72(s0)
    8000061a:	fad43823          	sd	a3,-80(s0)
    8000061e:	fae43423          	sd	a4,-88(s0)
    80000622:	fe043423          	sd	zero,-24(s0)
    80000626:	fe043023          	sd	zero,-32(s0)
    8000062a:	fc043783          	ld	a5,-64(s0)
    8000062e:	0791                	add	a5,a5,4
    80000630:	fcf43c23          	sd	a5,-40(s0)
    80000634:	fc843783          	ld	a5,-56(s0)
    80000638:	07d2                	sll	a5,a5,0x14
    8000063a:	fe843703          	ld	a4,-24(s0)
    8000063e:	8fd9                	or	a5,a5,a4
    80000640:	fef43423          	sd	a5,-24(s0)
    80000644:	fd843783          	ld	a5,-40(s0)
    80000648:	07d2                	sll	a5,a5,0x14
    8000064a:	fe843703          	ld	a4,-24(s0)
    8000064e:	8fd9                	or	a5,a5,a4
    80000650:	fef43423          	sd	a5,-24(s0)
    80000654:	fb843783          	ld	a5,-72(s0)
    80000658:	07c6                	sll	a5,a5,0x11
    8000065a:	fe843703          	ld	a4,-24(s0)
    8000065e:	8fd9                	or	a5,a5,a4
    80000660:	fef43423          	sd	a5,-24(s0)
    80000664:	fb043783          	ld	a5,-80(s0)
    80000668:	07ba                	sll	a5,a5,0xe
    8000066a:	fe843703          	ld	a4,-24(s0)
    8000066e:	8fd9                	or	a5,a5,a4
    80000670:	fef43423          	sd	a5,-24(s0)
    80000674:	fa843783          	ld	a5,-88(s0)
    80000678:	079a                	sll	a5,a5,0x6
    8000067a:	fe843703          	ld	a4,-24(s0)
    8000067e:	8fd9                	or	a5,a5,a4
    80000680:	fef43423          	sd	a5,-24(s0)
    80000684:	fe843783          	ld	a5,-24(s0)
    80000688:	0207e793          	or	a5,a5,32
    8000068c:	fef43423          	sd	a5,-24(s0)
    80000690:	fe043023          	sd	zero,-32(s0)
    80000694:	fe843783          	ld	a5,-24(s0)
    80000698:	fe043703          	ld	a4,-32(s0)
    8000069c:	e398                	sd	a4,0(a5)
    8000069e:	0001                	nop
    800006a0:	6466                	ld	s0,88(sp)
    800006a2:	6125                	add	sp,sp,96
    800006a4:	8082                	ret

00000000800006a6 <l2cache_taglv>:
    800006a6:	711d                	add	sp,sp,-96
    800006a8:	eca2                	sd	s0,88(sp)
    800006aa:	1080                	add	s0,sp,96
    800006ac:	fca43423          	sd	a0,-56(s0)
    800006b0:	fcb43023          	sd	a1,-64(s0)
    800006b4:	fac43c23          	sd	a2,-72(s0)
    800006b8:	fad43823          	sd	a3,-80(s0)
    800006bc:	fae43423          	sd	a4,-88(s0)
    800006c0:	fe043423          	sd	zero,-24(s0)
    800006c4:	fe043023          	sd	zero,-32(s0)
    800006c8:	fc043783          	ld	a5,-64(s0)
    800006cc:	0791                	add	a5,a5,4
    800006ce:	fcf43c23          	sd	a5,-40(s0)
    800006d2:	fc843783          	ld	a5,-56(s0)
    800006d6:	07d2                	sll	a5,a5,0x14
    800006d8:	fe843703          	ld	a4,-24(s0)
    800006dc:	8fd9                	or	a5,a5,a4
    800006de:	fef43423          	sd	a5,-24(s0)
    800006e2:	fd843783          	ld	a5,-40(s0)
    800006e6:	07d2                	sll	a5,a5,0x14
    800006e8:	fe843703          	ld	a4,-24(s0)
    800006ec:	8fd9                	or	a5,a5,a4
    800006ee:	fef43423          	sd	a5,-24(s0)
    800006f2:	fb843783          	ld	a5,-72(s0)
    800006f6:	07c6                	sll	a5,a5,0x11
    800006f8:	fe843703          	ld	a4,-24(s0)
    800006fc:	8fd9                	or	a5,a5,a4
    800006fe:	fef43423          	sd	a5,-24(s0)
    80000702:	fb043783          	ld	a5,-80(s0)
    80000706:	07ba                	sll	a5,a5,0xe
    80000708:	fe843703          	ld	a4,-24(s0)
    8000070c:	8fd9                	or	a5,a5,a4
    8000070e:	fef43423          	sd	a5,-24(s0)
    80000712:	fa843783          	ld	a5,-88(s0)
    80000716:	079a                	sll	a5,a5,0x6
    80000718:	fe843703          	ld	a4,-24(s0)
    8000071c:	8fd9                	or	a5,a5,a4
    8000071e:	fef43423          	sd	a5,-24(s0)
    80000722:	fe843783          	ld	a5,-24(s0)
    80000726:	0287e793          	or	a5,a5,40
    8000072a:	fef43423          	sd	a5,-24(s0)
    8000072e:	fe043023          	sd	zero,-32(s0)
    80000732:	fe843783          	ld	a5,-24(s0)
    80000736:	fe043703          	ld	a4,-32(s0)
    8000073a:	e398                	sd	a4,0(a5)
    8000073c:	0001                	nop
    8000073e:	6466                	ld	s0,88(sp)
    80000740:	6125                	add	sp,sp,96
    80000742:	8082                	ret

0000000080000744 <l2cache_tagla>:
    80000744:	711d                	add	sp,sp,-96
    80000746:	eca2                	sd	s0,88(sp)
    80000748:	1080                	add	s0,sp,96
    8000074a:	fca43423          	sd	a0,-56(s0)
    8000074e:	fcb43023          	sd	a1,-64(s0)
    80000752:	fac43c23          	sd	a2,-72(s0)
    80000756:	fad43823          	sd	a3,-80(s0)
    8000075a:	fae43423          	sd	a4,-88(s0)
    8000075e:	fe043423          	sd	zero,-24(s0)
    80000762:	fe043023          	sd	zero,-32(s0)
    80000766:	fc043783          	ld	a5,-64(s0)
    8000076a:	0791                	add	a5,a5,4
    8000076c:	fcf43c23          	sd	a5,-40(s0)
    80000770:	fc843783          	ld	a5,-56(s0)
    80000774:	07d2                	sll	a5,a5,0x14
    80000776:	fe843703          	ld	a4,-24(s0)
    8000077a:	8fd9                	or	a5,a5,a4
    8000077c:	fef43423          	sd	a5,-24(s0)
    80000780:	fd843783          	ld	a5,-40(s0)
    80000784:	07d2                	sll	a5,a5,0x14
    80000786:	fe843703          	ld	a4,-24(s0)
    8000078a:	8fd9                	or	a5,a5,a4
    8000078c:	fef43423          	sd	a5,-24(s0)
    80000790:	fb843783          	ld	a5,-72(s0)
    80000794:	07c6                	sll	a5,a5,0x11
    80000796:	fe843703          	ld	a4,-24(s0)
    8000079a:	8fd9                	or	a5,a5,a4
    8000079c:	fef43423          	sd	a5,-24(s0)
    800007a0:	fb043783          	ld	a5,-80(s0)
    800007a4:	07ba                	sll	a5,a5,0xe
    800007a6:	fe843703          	ld	a4,-24(s0)
    800007aa:	8fd9                	or	a5,a5,a4
    800007ac:	fef43423          	sd	a5,-24(s0)
    800007b0:	fa843783          	ld	a5,-88(s0)
    800007b4:	079a                	sll	a5,a5,0x6
    800007b6:	fe843703          	ld	a4,-24(s0)
    800007ba:	8fd9                	or	a5,a5,a4
    800007bc:	fef43423          	sd	a5,-24(s0)
    800007c0:	fe843783          	ld	a5,-24(s0)
    800007c4:	0307e793          	or	a5,a5,48
    800007c8:	fef43423          	sd	a5,-24(s0)
    800007cc:	fe043023          	sd	zero,-32(s0)
    800007d0:	fe843783          	ld	a5,-24(s0)
    800007d4:	fe043703          	ld	a4,-32(s0)
    800007d8:	e398                	sd	a4,0(a5)
    800007da:	0001                	nop
    800007dc:	6466                	ld	s0,88(sp)
    800007de:	6125                	add	sp,sp,96
    800007e0:	8082                	ret

00000000800007e2 <l2cache_tagst>:
    800007e2:	711d                	add	sp,sp,-96
    800007e4:	eca2                	sd	s0,88(sp)
    800007e6:	1080                	add	s0,sp,96
    800007e8:	fca43423          	sd	a0,-56(s0)
    800007ec:	fcb43023          	sd	a1,-64(s0)
    800007f0:	fac43c23          	sd	a2,-72(s0)
    800007f4:	fad43823          	sd	a3,-80(s0)
    800007f8:	fae43423          	sd	a4,-88(s0)
    800007fc:	faf43023          	sd	a5,-96(s0)
    80000800:	fe043423          	sd	zero,-24(s0)
    80000804:	fe043023          	sd	zero,-32(s0)
    80000808:	fc043783          	ld	a5,-64(s0)
    8000080c:	0791                	add	a5,a5,4
    8000080e:	fcf43c23          	sd	a5,-40(s0)
    80000812:	fc843783          	ld	a5,-56(s0)
    80000816:	07d2                	sll	a5,a5,0x14
    80000818:	fe843703          	ld	a4,-24(s0)
    8000081c:	8fd9                	or	a5,a5,a4
    8000081e:	fef43423          	sd	a5,-24(s0)
    80000822:	fd843783          	ld	a5,-40(s0)
    80000826:	07d2                	sll	a5,a5,0x14
    80000828:	fe843703          	ld	a4,-24(s0)
    8000082c:	8fd9                	or	a5,a5,a4
    8000082e:	fef43423          	sd	a5,-24(s0)
    80000832:	fb843783          	ld	a5,-72(s0)
    80000836:	07c6                	sll	a5,a5,0x11
    80000838:	fe843703          	ld	a4,-24(s0)
    8000083c:	8fd9                	or	a5,a5,a4
    8000083e:	fef43423          	sd	a5,-24(s0)
    80000842:	fb043783          	ld	a5,-80(s0)
    80000846:	07ba                	sll	a5,a5,0xe
    80000848:	fe843703          	ld	a4,-24(s0)
    8000084c:	8fd9                	or	a5,a5,a4
    8000084e:	fef43423          	sd	a5,-24(s0)
    80000852:	fa843783          	ld	a5,-88(s0)
    80000856:	079a                	sll	a5,a5,0x6
    80000858:	fe843703          	ld	a4,-24(s0)
    8000085c:	8fd9                	or	a5,a5,a4
    8000085e:	fef43423          	sd	a5,-24(s0)
    80000862:	fe843783          	ld	a5,-24(s0)
    80000866:	0307e793          	or	a5,a5,48
    8000086a:	fef43423          	sd	a5,-24(s0)
    8000086e:	fa043783          	ld	a5,-96(s0)
    80000872:	fef43023          	sd	a5,-32(s0)
    80000876:	fe843783          	ld	a5,-24(s0)
    8000087a:	fe043703          	ld	a4,-32(s0)
    8000087e:	e398                	sd	a4,0(a5)
    80000880:	0001                	nop
    80000882:	6466                	ld	s0,88(sp)
    80000884:	6125                	add	sp,sp,96
    80000886:	8082                	ret

0000000080000888 <register_trap_handler>:
    80000888:	7179                	add	sp,sp,-48
    8000088a:	f422                	sd	s0,40(sp)
    8000088c:	1800                	add	s0,sp,48
    8000088e:	fca43c23          	sd	a0,-40(s0)
    80000892:	fcb43823          	sd	a1,-48(s0)
    80000896:	fd043783          	ld	a5,-48(s0)
    8000089a:	fef42623          	sw	a5,-20(s0)
    8000089e:	fd043783          	ld	a5,-48(s0)
    800008a2:	fff7c793          	not	a5,a5
    800008a6:	93fd                	srl	a5,a5,0x3f
    800008a8:	0ff7f793          	zext.b	a5,a5
    800008ac:	fef42423          	sw	a5,-24(s0)
    800008b0:	fe842783          	lw	a5,-24(s0)
    800008b4:	2781                	sext.w	a5,a5
    800008b6:	c79d                	beqz	a5,800008e4 <register_trap_handler+0x5c>
    800008b8:	fec42783          	lw	a5,-20(s0)
    800008bc:	0007871b          	sext.w	a4,a5
    800008c0:	47bd                	li	a5,15
    800008c2:	00e7ef63          	bltu	a5,a4,800008e0 <register_trap_handler+0x58>
    800008c6:	00007717          	auipc	a4,0x7
    800008ca:	0ba70713          	add	a4,a4,186 # 80007980 <exception_handler>
    800008ce:	fec46783          	lwu	a5,-20(s0)
    800008d2:	078e                	sll	a5,a5,0x3
    800008d4:	97ba                	add	a5,a5,a4
    800008d6:	fd843703          	ld	a4,-40(s0)
    800008da:	e398                	sd	a4,0(a5)
    800008dc:	4781                	li	a5,0
    800008de:	a805                	j	8000090e <register_trap_handler+0x86>
    800008e0:	57fd                	li	a5,-1
    800008e2:	a035                	j	8000090e <register_trap_handler+0x86>
    800008e4:	fec42783          	lw	a5,-20(s0)
    800008e8:	0007871b          	sext.w	a4,a5
    800008ec:	47ad                	li	a5,11
    800008ee:	00e7ef63          	bltu	a5,a4,8000090c <register_trap_handler+0x84>
    800008f2:	00007717          	auipc	a4,0x7
    800008f6:	10e70713          	add	a4,a4,270 # 80007a00 <interrupt_handler>
    800008fa:	fec46783          	lwu	a5,-20(s0)
    800008fe:	078e                	sll	a5,a5,0x3
    80000900:	97ba                	add	a5,a5,a4
    80000902:	fd843703          	ld	a4,-40(s0)
    80000906:	e398                	sd	a4,0(a5)
    80000908:	4781                	li	a5,0
    8000090a:	a011                	j	8000090e <register_trap_handler+0x86>
    8000090c:	57fd                	li	a5,-1
    8000090e:	853e                	mv	a0,a5
    80000910:	7422                	ld	s0,40(sp)
    80000912:	6145                	add	sp,sp,48
    80000914:	8082                	ret

0000000080000916 <bp_trap_handler>:
    80000916:	7139                	add	sp,sp,-64
    80000918:	fc06                	sd	ra,56(sp)
    8000091a:	f822                	sd	s0,48(sp)
    8000091c:	0080                	add	s0,sp,64
    8000091e:	fca43c23          	sd	a0,-40(s0)
    80000922:	fcb43823          	sd	a1,-48(s0)
    80000926:	fcc43423          	sd	a2,-56(s0)
    8000092a:	fd043783          	ld	a5,-48(s0)
    8000092e:	93fd                	srl	a5,a5,0x3f
    80000930:	0ff7f793          	zext.b	a5,a5
    80000934:	fef42623          	sw	a5,-20(s0)
    80000938:	fd043783          	ld	a5,-48(s0)
    8000093c:	fef42423          	sw	a5,-24(s0)
    80000940:	fec42783          	lw	a5,-20(s0)
    80000944:	2781                	sext.w	a5,a5
    80000946:	c7b9                	beqz	a5,80000994 <bp_trap_handler+0x7e>
    80000948:	fe842783          	lw	a5,-24(s0)
    8000094c:	2781                	sext.w	a5,a5
    8000094e:	0207ca63          	bltz	a5,80000982 <bp_trap_handler+0x6c>
    80000952:	fe842783          	lw	a5,-24(s0)
    80000956:	0007871b          	sext.w	a4,a5
    8000095a:	47ad                	li	a5,11
    8000095c:	02e7c363          	blt	a5,a4,80000982 <bp_trap_handler+0x6c>
    80000960:	00007717          	auipc	a4,0x7
    80000964:	0a070713          	add	a4,a4,160 # 80007a00 <interrupt_handler>
    80000968:	fe842783          	lw	a5,-24(s0)
    8000096c:	078e                	sll	a5,a5,0x3
    8000096e:	97ba                	add	a5,a5,a4
    80000970:	639c                	ld	a5,0(a5)
    80000972:	fc843603          	ld	a2,-56(s0)
    80000976:	fd043583          	ld	a1,-48(s0)
    8000097a:	fd843503          	ld	a0,-40(s0)
    8000097e:	9782                	jalr	a5
    80000980:	a085                	j	800009e0 <bp_trap_handler+0xca>
    80000982:	fc843603          	ld	a2,-56(s0)
    80000986:	fd043583          	ld	a1,-48(s0)
    8000098a:	fd843503          	ld	a0,-40(s0)
    8000098e:	4f8000ef          	jal	80000e86 <bp_unhandled_trap_abort>
    80000992:	a0b9                	j	800009e0 <bp_trap_handler+0xca>
    80000994:	fe842783          	lw	a5,-24(s0)
    80000998:	2781                	sext.w	a5,a5
    8000099a:	0207ca63          	bltz	a5,800009ce <bp_trap_handler+0xb8>
    8000099e:	fe842783          	lw	a5,-24(s0)
    800009a2:	0007871b          	sext.w	a4,a5
    800009a6:	47bd                	li	a5,15
    800009a8:	02e7c363          	blt	a5,a4,800009ce <bp_trap_handler+0xb8>
    800009ac:	00007717          	auipc	a4,0x7
    800009b0:	fd470713          	add	a4,a4,-44 # 80007980 <exception_handler>
    800009b4:	fe842783          	lw	a5,-24(s0)
    800009b8:	078e                	sll	a5,a5,0x3
    800009ba:	97ba                	add	a5,a5,a4
    800009bc:	639c                	ld	a5,0(a5)
    800009be:	fc843603          	ld	a2,-56(s0)
    800009c2:	fd043583          	ld	a1,-48(s0)
    800009c6:	fd843503          	ld	a0,-40(s0)
    800009ca:	9782                	jalr	a5
    800009cc:	a811                	j	800009e0 <bp_trap_handler+0xca>
    800009ce:	fc843603          	ld	a2,-56(s0)
    800009d2:	fd043583          	ld	a1,-48(s0)
    800009d6:	fd843503          	ld	a0,-40(s0)
    800009da:	4ac000ef          	jal	80000e86 <bp_unhandled_trap_abort>
    800009de:	a009                	j	800009e0 <bp_trap_handler+0xca>
    800009e0:	0001                	nop
    800009e2:	70e2                	ld	ra,56(sp)
    800009e4:	7442                	ld	s0,48(sp)
    800009e6:	6121                	add	sp,sp,64
    800009e8:	8082                	ret

00000000800009ea <dramfs_fs_init>:
    800009ea:	1141                	add	sp,sp,-16
    800009ec:	e422                	sd	s0,8(sp)
    800009ee:	0800                	add	s0,sp,16
    800009f0:	4781                	li	a5,0
    800009f2:	853e                	mv	a0,a5
    800009f4:	6422                	ld	s0,8(sp)
    800009f6:	0141                	add	sp,sp,16
    800009f8:	8082                	ret

00000000800009fa <bp_get_hart>:
    800009fa:	1101                	add	sp,sp,-32
    800009fc:	ec22                	sd	s0,24(sp)
    800009fe:	1000                	add	s0,sp,32
    80000a00:	f14027f3          	csrr	a5,mhartid
    80000a04:	fef43423          	sd	a5,-24(s0)
    80000a08:	fe843783          	ld	a5,-24(s0)
    80000a0c:	853e                	mv	a0,a5
    80000a0e:	6462                	ld	s0,24(sp)
    80000a10:	6105                	add	sp,sp,32
    80000a12:	8082                	ret

0000000080000a14 <bp_barrier_end>:
    80000a14:	7179                	add	sp,sp,-48
    80000a16:	f406                	sd	ra,40(sp)
    80000a18:	f022                	sd	s0,32(sp)
    80000a1a:	1800                	add	s0,sp,48
    80000a1c:	fca43c23          	sd	a0,-40(s0)
    80000a20:	fcb43823          	sd	a1,-48(s0)
    80000a24:	4785                	li	a5,1
    80000a26:	fef43423          	sd	a5,-24(s0)
    80000a2a:	fd843783          	ld	a5,-40(s0)
    80000a2e:	fe843703          	ld	a4,-24(s0)
    80000a32:	00e7b7af          	amoadd.d	a5,a4,(a5)
    80000a36:	fef43023          	sd	a5,-32(s0)
    80000a3a:	0001                	nop
    80000a3c:	fd843783          	ld	a5,-40(s0)
    80000a40:	639c                	ld	a5,0(a5)
    80000a42:	fd043703          	ld	a4,-48(s0)
    80000a46:	fee7ebe3          	bltu	a5,a4,80000a3c <bp_barrier_end+0x28>
    80000a4a:	4501                	li	a0,0
    80000a4c:	00e000ef          	jal	80000a5a <bp_finish>
    80000a50:	0001                	nop
    80000a52:	70a2                	ld	ra,40(sp)
    80000a54:	7402                	ld	s0,32(sp)
    80000a56:	6145                	add	sp,sp,48
    80000a58:	8082                	ret

0000000080000a5a <bp_finish>:
    80000a5a:	7179                	add	sp,sp,-48
    80000a5c:	f406                	sd	ra,40(sp)
    80000a5e:	f022                	sd	s0,32(sp)
    80000a60:	1800                	add	s0,sp,48
    80000a62:	87aa                	mv	a5,a0
    80000a64:	fcf40fa3          	sb	a5,-33(s0)
    80000a68:	f93ff0ef          	jal	800009fa <bp_get_hart>
    80000a6c:	fea43423          	sd	a0,-24(s0)
    80000a70:	fe843783          	ld	a5,-24(s0)
    80000a74:	00379713          	sll	a4,a5,0x3
    80000a78:	001027b7          	lui	a5,0x102
    80000a7c:	97ba                	add	a5,a5,a4
    80000a7e:	fdf44703          	lbu	a4,-33(s0)
    80000a82:	00e78023          	sb	a4,0(a5) # 102000 <_start-0x7fefe000>
    80000a86:	0ff0000f          	fence
    80000a8a:	a001                	j	80000a8a <bp_finish+0x30>

0000000080000a8c <bp_hprint>:
    80000a8c:	1101                	add	sp,sp,-32
    80000a8e:	ec06                	sd	ra,24(sp)
    80000a90:	e822                	sd	s0,16(sp)
    80000a92:	1000                	add	s0,sp,32
    80000a94:	87aa                	mv	a5,a0
    80000a96:	fef407a3          	sb	a5,-17(s0)
    80000a9a:	fef44783          	lbu	a5,-17(s0)
    80000a9e:	0ff7f713          	zext.b	a4,a5
    80000aa2:	47a5                	li	a5,9
    80000aa4:	00e7ec63          	bltu	a5,a4,80000abc <bp_hprint+0x30>
    80000aa8:	fef44783          	lbu	a5,-17(s0)
    80000aac:	0307879b          	addw	a5,a5,48
    80000ab0:	0ff7f793          	zext.b	a5,a5
    80000ab4:	853e                	mv	a0,a5
    80000ab6:	030000ef          	jal	80000ae6 <bp_cprint>
    80000aba:	a00d                	j	80000adc <bp_hprint+0x50>
    80000abc:	fef44783          	lbu	a5,-17(s0)
    80000ac0:	0ff7f713          	zext.b	a4,a5
    80000ac4:	47bd                	li	a5,15
    80000ac6:	00e7eb63          	bltu	a5,a4,80000adc <bp_hprint+0x50>
    80000aca:	fef44783          	lbu	a5,-17(s0)
    80000ace:	0577879b          	addw	a5,a5,87
    80000ad2:	0ff7f793          	zext.b	a5,a5
    80000ad6:	853e                	mv	a0,a5
    80000ad8:	00e000ef          	jal	80000ae6 <bp_cprint>
    80000adc:	0001                	nop
    80000ade:	60e2                	ld	ra,24(sp)
    80000ae0:	6442                	ld	s0,16(sp)
    80000ae2:	6105                	add	sp,sp,32
    80000ae4:	8082                	ret

0000000080000ae6 <bp_cprint>:
    80000ae6:	1101                	add	sp,sp,-32
    80000ae8:	ec22                	sd	s0,24(sp)
    80000aea:	1000                	add	s0,sp,32
    80000aec:	87aa                	mv	a5,a0
    80000aee:	fef407a3          	sb	a5,-17(s0)
    80000af2:	001017b7          	lui	a5,0x101
    80000af6:	fef44703          	lbu	a4,-17(s0)
    80000afa:	00e78023          	sb	a4,0(a5) # 101000 <_start-0x7feff000>
    80000afe:	0001                	nop
    80000b00:	6462                	ld	s0,24(sp)
    80000b02:	6105                	add	sp,sp,32
    80000b04:	8082                	ret

0000000080000b06 <bp_hprint_uint64>:
    80000b06:	7179                	add	sp,sp,-48
    80000b08:	f406                	sd	ra,40(sp)
    80000b0a:	f022                	sd	s0,32(sp)
    80000b0c:	1800                	add	s0,sp,48
    80000b0e:	fca43c23          	sd	a0,-40(s0)
    80000b12:	03000513          	li	a0,48
    80000b16:	fd1ff0ef          	jal	80000ae6 <bp_cprint>
    80000b1a:	07800513          	li	a0,120
    80000b1e:	fc9ff0ef          	jal	80000ae6 <bp_cprint>
    80000b22:	fe042623          	sw	zero,-20(s0)
    80000b26:	a02d                	j	80000b50 <bp_hprint_uint64+0x4a>
    80000b28:	fd843783          	ld	a5,-40(s0)
    80000b2c:	93f1                	srl	a5,a5,0x3c
    80000b2e:	fef405a3          	sb	a5,-21(s0)
    80000b32:	feb44783          	lbu	a5,-21(s0)
    80000b36:	853e                	mv	a0,a5
    80000b38:	f55ff0ef          	jal	80000a8c <bp_hprint>
    80000b3c:	fd843783          	ld	a5,-40(s0)
    80000b40:	0792                	sll	a5,a5,0x4
    80000b42:	fcf43c23          	sd	a5,-40(s0)
    80000b46:	fec42783          	lw	a5,-20(s0)
    80000b4a:	2785                	addw	a5,a5,1
    80000b4c:	fef42623          	sw	a5,-20(s0)
    80000b50:	fec42783          	lw	a5,-20(s0)
    80000b54:	0007871b          	sext.w	a4,a5
    80000b58:	47bd                	li	a5,15
    80000b5a:	fce7d7e3          	bge	a5,a4,80000b28 <bp_hprint_uint64+0x22>
    80000b5e:	0001                	nop
    80000b60:	0001                	nop
    80000b62:	70a2                	ld	ra,40(sp)
    80000b64:	7402                	ld	s0,32(sp)
    80000b66:	6145                	add	sp,sp,48
    80000b68:	8082                	ret

0000000080000b6a <bp_print_string>:
    80000b6a:	1101                	add	sp,sp,-32
    80000b6c:	ec06                	sd	ra,24(sp)
    80000b6e:	e822                	sd	s0,16(sp)
    80000b70:	1000                	add	s0,sp,32
    80000b72:	fea43423          	sd	a0,-24(s0)
    80000b76:	a829                	j	80000b90 <bp_print_string+0x26>
    80000b78:	fe843783          	ld	a5,-24(s0)
    80000b7c:	0007c783          	lbu	a5,0(a5)
    80000b80:	853e                	mv	a0,a5
    80000b82:	f65ff0ef          	jal	80000ae6 <bp_cprint>
    80000b86:	fe843783          	ld	a5,-24(s0)
    80000b8a:	0785                	add	a5,a5,1
    80000b8c:	fef43423          	sd	a5,-24(s0)
    80000b90:	fe843783          	ld	a5,-24(s0)
    80000b94:	0007c783          	lbu	a5,0(a5)
    80000b98:	f3e5                	bnez	a5,80000b78 <bp_print_string+0xe>
    80000b9a:	0001                	nop
    80000b9c:	0001                	nop
    80000b9e:	60e2                	ld	ra,24(sp)
    80000ba0:	6442                	ld	s0,16(sp)
    80000ba2:	6105                	add	sp,sp,32
    80000ba4:	8082                	ret

0000000080000ba6 <bp_cget>:
    80000ba6:	1101                	add	sp,sp,-32
    80000ba8:	ec22                	sd	s0,24(sp)
    80000baa:	1000                	add	s0,sp,32
    80000bac:	001007b7          	lui	a5,0x100
    80000bb0:	0007c783          	lbu	a5,0(a5) # 100000 <_start-0x7ff00000>
    80000bb4:	fef407a3          	sb	a5,-17(s0)
    80000bb8:	fef44783          	lbu	a5,-17(s0)
    80000bbc:	0ff7f713          	zext.b	a4,a5
    80000bc0:	0ff00793          	li	a5,255
    80000bc4:	00f71463          	bne	a4,a5,80000bcc <bp_cget+0x26>
    80000bc8:	57fd                	li	a5,-1
    80000bca:	a829                	j	80000be4 <bp_cget+0x3e>
    80000bcc:	fef44783          	lbu	a5,-17(s0)
    80000bd0:	0ff7f713          	zext.b	a4,a5
    80000bd4:	47b5                	li	a5,13
    80000bd6:	00f71463          	bne	a4,a5,80000bde <bp_cget+0x38>
    80000bda:	47a9                	li	a5,10
    80000bdc:	a021                	j	80000be4 <bp_cget+0x3e>
    80000bde:	fef44783          	lbu	a5,-17(s0)
    80000be2:	2781                	sext.w	a5,a5
    80000be4:	853e                	mv	a0,a5
    80000be6:	6462                	ld	s0,24(sp)
    80000be8:	6105                	add	sp,sp,32
    80000bea:	8082                	ret

0000000080000bec <bp_panic>:
    80000bec:	1101                	add	sp,sp,-32
    80000bee:	ec06                	sd	ra,24(sp)
    80000bf0:	e822                	sd	s0,16(sp)
    80000bf2:	1000                	add	s0,sp,32
    80000bf4:	fea43423          	sd	a0,-24(s0)
    80000bf8:	fe843783          	ld	a5,-24(s0)
    80000bfc:	c789                	beqz	a5,80000c06 <bp_panic+0x1a>
    80000bfe:	fe843503          	ld	a0,-24(s0)
    80000c02:	f69ff0ef          	jal	80000b6a <bp_print_string>
    80000c06:	4505                	li	a0,1
    80000c08:	e53ff0ef          	jal	80000a5a <bp_finish>
    80000c0c:	a001                	j	80000c0c <bp_panic+0x20>

0000000080000c0e <bp_param_get>:
    80000c0e:	1101                	add	sp,sp,-32
    80000c10:	ec22                	sd	s0,24(sp)
    80000c12:	1000                	add	s0,sp,32
    80000c14:	fea43423          	sd	a0,-24(s0)
    80000c18:	fe843783          	ld	a5,-24(s0)
    80000c1c:	439c                	lw	a5,0(a5)
    80000c1e:	2781                	sext.w	a5,a5
    80000c20:	853e                	mv	a0,a5
    80000c22:	6462                	ld	s0,24(sp)
    80000c24:	6105                	add	sp,sp,32
    80000c26:	8082                	ret

0000000080000c28 <dramfs_init>:
    80000c28:	1141                	add	sp,sp,-16
    80000c2a:	e406                	sd	ra,8(sp)
    80000c2c:	e022                	sd	s0,0(sp)
    80000c2e:	0800                	add	s0,sp,16
    80000c30:	00008317          	auipc	t1,0x8
    80000c34:	a9833303          	ld	t1,-1384(t1) # 800086c8 <_GLOBAL_OFFSET_TABLE_+0x8>
    80000c38:	9302                	jalr	t1
    80000c3a:	87aa                	mv	a5,a0
    80000c3c:	0007d563          	bgez	a5,80000c46 <dramfs_init+0x1e>
    80000c40:	557d                	li	a0,-1
    80000c42:	183030ef          	jal	800045c4 <exit>
    80000c46:	0001                	nop
    80000c48:	60a2                	ld	ra,8(sp)
    80000c4a:	6402                	ld	s0,0(sp)
    80000c4c:	0141                	add	sp,sp,16
    80000c4e:	8082                	ret

0000000080000c50 <dramfs_exit>:
    80000c50:	1101                	add	sp,sp,-32
    80000c52:	ec06                	sd	ra,24(sp)
    80000c54:	e822                	sd	s0,16(sp)
    80000c56:	1000                	add	s0,sp,32
    80000c58:	87aa                	mv	a5,a0
    80000c5a:	fef42623          	sw	a5,-20(s0)
    80000c5e:	fec42783          	lw	a5,-20(s0)
    80000c62:	0ff7f793          	zext.b	a5,a5
    80000c66:	853e                	mv	a0,a5
    80000c68:	df3ff0ef          	jal	80000a5a <bp_finish>
    80000c6c:	0001                	nop
    80000c6e:	60e2                	ld	ra,24(sp)
    80000c70:	6442                	ld	s0,16(sp)
    80000c72:	6105                	add	sp,sp,32
    80000c74:	8082                	ret

0000000080000c76 <dramfs_sendchar>:
    80000c76:	1101                	add	sp,sp,-32
    80000c78:	ec06                	sd	ra,24(sp)
    80000c7a:	e822                	sd	s0,16(sp)
    80000c7c:	1000                	add	s0,sp,32
    80000c7e:	87aa                	mv	a5,a0
    80000c80:	fef407a3          	sb	a5,-17(s0)
    80000c84:	fef44783          	lbu	a5,-17(s0)
    80000c88:	853e                	mv	a0,a5
    80000c8a:	e5dff0ef          	jal	80000ae6 <bp_cprint>
    80000c8e:	0001                	nop
    80000c90:	60e2                	ld	ra,24(sp)
    80000c92:	6442                	ld	s0,16(sp)
    80000c94:	6105                	add	sp,sp,32
    80000c96:	8082                	ret

0000000080000c98 <dramfs_getchar>:
    80000c98:	1141                	add	sp,sp,-16
    80000c9a:	e406                	sd	ra,8(sp)
    80000c9c:	e022                	sd	s0,0(sp)
    80000c9e:	0800                	add	s0,sp,16
    80000ca0:	f07ff0ef          	jal	80000ba6 <bp_cget>
    80000ca4:	87aa                	mv	a5,a0
    80000ca6:	853e                	mv	a0,a5
    80000ca8:	60a2                	ld	ra,8(sp)
    80000caa:	6402                	ld	s0,0(sp)
    80000cac:	0141                	add	sp,sp,16
    80000cae:	8082                	ret

0000000080000cb0 <bp_dump_trap_context>:
    80000cb0:	7179                	add	sp,sp,-48
    80000cb2:	f406                	sd	ra,40(sp)
    80000cb4:	f022                	sd	s0,32(sp)
    80000cb6:	1800                	add	s0,sp,48
    80000cb8:	fca43c23          	sd	a0,-40(s0)
    80000cbc:	fcb43823          	sd	a1,-48(s0)
    80000cc0:	341027f3          	csrr	a5,mepc
    80000cc4:	fef43423          	sd	a5,-24(s0)
    80000cc8:	00005517          	auipc	a0,0x5
    80000ccc:	b5850513          	add	a0,a0,-1192 # 80005820 <_open+0x92>
    80000cd0:	e9bff0ef          	jal	80000b6a <bp_print_string>
    80000cd4:	fd843503          	ld	a0,-40(s0)
    80000cd8:	e2fff0ef          	jal	80000b06 <bp_hprint_uint64>
    80000cdc:	00005517          	auipc	a0,0x5
    80000ce0:	b5450513          	add	a0,a0,-1196 # 80005830 <_open+0xa2>
    80000ce4:	e87ff0ef          	jal	80000b6a <bp_print_string>
    80000ce8:	fd043503          	ld	a0,-48(s0)
    80000cec:	e1bff0ef          	jal	80000b06 <bp_hprint_uint64>
    80000cf0:	00005517          	auipc	a0,0x5
    80000cf4:	b5050513          	add	a0,a0,-1200 # 80005840 <_open+0xb2>
    80000cf8:	e73ff0ef          	jal	80000b6a <bp_print_string>
    80000cfc:	fe843503          	ld	a0,-24(s0)
    80000d00:	e07ff0ef          	jal	80000b06 <bp_hprint_uint64>
    80000d04:	0001                	nop
    80000d06:	70a2                	ld	ra,40(sp)
    80000d08:	7402                	ld	s0,32(sp)
    80000d0a:	6145                	add	sp,sp,48
    80000d0c:	8082                	ret

0000000080000d0e <bp_emulate_illegal_instruction>:
    80000d0e:	711d                	add	sp,sp,-96
    80000d10:	ec86                	sd	ra,88(sp)
    80000d12:	e8a2                	sd	s0,80(sp)
    80000d14:	e4a6                	sd	s1,72(sp)
    80000d16:	1080                	add	s0,sp,96
    80000d18:	faa43c23          	sd	a0,-72(s0)
    80000d1c:	fab43823          	sd	a1,-80(s0)
    80000d20:	fac43423          	sd	a2,-88(s0)
    80000d24:	fa843783          	ld	a5,-88(s0)
    80000d28:	83d1                	srl	a5,a5,0x14
    80000d2a:	17c2                	sll	a5,a5,0x30
    80000d2c:	93c1                	srl	a5,a5,0x30
    80000d2e:	7ff7f793          	and	a5,a5,2047
    80000d32:	fcf41f23          	sh	a5,-34(s0)
    80000d36:	fa843783          	ld	a5,-88(s0)
    80000d3a:	83ed                	srl	a5,a5,0x1b
    80000d3c:	0ff7f793          	zext.b	a5,a5
    80000d40:	8bfd                	and	a5,a5,31
    80000d42:	fcf40ea3          	sb	a5,-35(s0)
    80000d46:	fa843783          	ld	a5,-88(s0)
    80000d4a:	83d1                	srl	a5,a5,0x14
    80000d4c:	0ff7f793          	zext.b	a5,a5
    80000d50:	8bfd                	and	a5,a5,31
    80000d52:	fcf40e23          	sb	a5,-36(s0)
    80000d56:	fa843783          	ld	a5,-88(s0)
    80000d5a:	83bd                	srl	a5,a5,0xf
    80000d5c:	0ff7f793          	zext.b	a5,a5
    80000d60:	8bfd                	and	a5,a5,31
    80000d62:	fcf40da3          	sb	a5,-37(s0)
    80000d66:	fa843783          	ld	a5,-88(s0)
    80000d6a:	83b1                	srl	a5,a5,0xc
    80000d6c:	0ff7f793          	zext.b	a5,a5
    80000d70:	8b9d                	and	a5,a5,7
    80000d72:	fcf40d23          	sb	a5,-38(s0)
    80000d76:	fa843783          	ld	a5,-88(s0)
    80000d7a:	839d                	srl	a5,a5,0x7
    80000d7c:	0ff7f793          	zext.b	a5,a5
    80000d80:	8bfd                	and	a5,a5,31
    80000d82:	fcf40ca3          	sb	a5,-39(s0)
    80000d86:	fa843783          	ld	a5,-88(s0)
    80000d8a:	0ff7f793          	zext.b	a5,a5
    80000d8e:	07f7f793          	and	a5,a5,127
    80000d92:	fcf40c23          	sb	a5,-40(s0)
    80000d96:	fdb44783          	lbu	a5,-37(s0)
    80000d9a:	078e                	sll	a5,a5,0x3
    80000d9c:	fb843703          	ld	a4,-72(s0)
    80000da0:	97ba                	add	a5,a5,a4
    80000da2:	639c                	ld	a5,0(a5)
    80000da4:	fcf43823          	sd	a5,-48(s0)
    80000da8:	fdc44783          	lbu	a5,-36(s0)
    80000dac:	078e                	sll	a5,a5,0x3
    80000dae:	fb843703          	ld	a4,-72(s0)
    80000db2:	97ba                	add	a5,a5,a4
    80000db4:	639c                	ld	a5,0(a5)
    80000db6:	fcf43423          	sd	a5,-56(s0)
    80000dba:	fd844783          	lbu	a5,-40(s0)
    80000dbe:	0ff7f713          	zext.b	a4,a5
    80000dc2:	02f00793          	li	a5,47
    80000dc6:	04f71063          	bne	a4,a5,80000e06 <bp_emulate_illegal_instruction+0xf8>
    80000dca:	fda44783          	lbu	a5,-38(s0)
    80000dce:	2781                	sext.w	a5,a5
    80000dd0:	00007717          	auipc	a4,0x7
    80000dd4:	ed070713          	add	a4,a4,-304 # 80007ca0 <amo_jt>
    80000dd8:	078e                	sll	a5,a5,0x3
    80000dda:	97ba                	add	a5,a5,a4
    80000ddc:	6398                	ld	a4,0(a5)
    80000dde:	fdd44783          	lbu	a5,-35(s0)
    80000de2:	078e                	sll	a5,a5,0x3
    80000de4:	97ba                	add	a5,a5,a4
    80000de6:	639c                	ld	a5,0(a5)
    80000de8:	fd944703          	lbu	a4,-39(s0)
    80000dec:	070e                	sll	a4,a4,0x3
    80000dee:	fb843683          	ld	a3,-72(s0)
    80000df2:	00e684b3          	add	s1,a3,a4
    80000df6:	fc843583          	ld	a1,-56(s0)
    80000dfa:	fd043503          	ld	a0,-48(s0)
    80000dfe:	9782                	jalr	a5
    80000e00:	87aa                	mv	a5,a0
    80000e02:	e09c                	sd	a5,0(s1)
    80000e04:	a8b1                	j	80000e60 <bp_emulate_illegal_instruction+0x152>
    80000e06:	fd844783          	lbu	a5,-40(s0)
    80000e0a:	0ff7f713          	zext.b	a4,a5
    80000e0e:	03300793          	li	a5,51
    80000e12:	02f71b63          	bne	a4,a5,80000e48 <bp_emulate_illegal_instruction+0x13a>
    80000e16:	fda44783          	lbu	a5,-38(s0)
    80000e1a:	2781                	sext.w	a5,a5
    80000e1c:	00007717          	auipc	a4,0x7
    80000e20:	e4470713          	add	a4,a4,-444 # 80007c60 <mul_jt>
    80000e24:	078e                	sll	a5,a5,0x3
    80000e26:	97ba                	add	a5,a5,a4
    80000e28:	639c                	ld	a5,0(a5)
    80000e2a:	fd944703          	lbu	a4,-39(s0)
    80000e2e:	070e                	sll	a4,a4,0x3
    80000e30:	fb843683          	ld	a3,-72(s0)
    80000e34:	00e684b3          	add	s1,a3,a4
    80000e38:	fc843583          	ld	a1,-56(s0)
    80000e3c:	fd043503          	ld	a0,-48(s0)
    80000e40:	9782                	jalr	a5
    80000e42:	87aa                	mv	a5,a0
    80000e44:	e09c                	sd	a5,0(s1)
    80000e46:	a829                	j	80000e60 <bp_emulate_illegal_instruction+0x152>
    80000e48:	fa843583          	ld	a1,-88(s0)
    80000e4c:	fb043503          	ld	a0,-80(s0)
    80000e50:	e61ff0ef          	jal	80000cb0 <bp_dump_trap_context>
    80000e54:	00005517          	auipc	a0,0x5
    80000e58:	9fc50513          	add	a0,a0,-1540 # 80005850 <_open+0xc2>
    80000e5c:	d91ff0ef          	jal	80000bec <bp_panic>
    80000e60:	341027f3          	csrr	a5,mepc
    80000e64:	fcf43023          	sd	a5,-64(s0)
    80000e68:	fc043783          	ld	a5,-64(s0)
    80000e6c:	0791                	add	a5,a5,4
    80000e6e:	fcf43023          	sd	a5,-64(s0)
    80000e72:	fc043783          	ld	a5,-64(s0)
    80000e76:	34179073          	csrw	mepc,a5
    80000e7a:	0001                	nop
    80000e7c:	60e6                	ld	ra,88(sp)
    80000e7e:	6446                	ld	s0,80(sp)
    80000e80:	64a6                	ld	s1,72(sp)
    80000e82:	6125                	add	sp,sp,96
    80000e84:	8082                	ret

0000000080000e86 <bp_unhandled_trap_abort>:
    80000e86:	7179                	add	sp,sp,-48
    80000e88:	f406                	sd	ra,40(sp)
    80000e8a:	f022                	sd	s0,32(sp)
    80000e8c:	1800                	add	s0,sp,48
    80000e8e:	fea43423          	sd	a0,-24(s0)
    80000e92:	feb43023          	sd	a1,-32(s0)
    80000e96:	fcc43c23          	sd	a2,-40(s0)
    80000e9a:	fd843583          	ld	a1,-40(s0)
    80000e9e:	fe043503          	ld	a0,-32(s0)
    80000ea2:	e0fff0ef          	jal	80000cb0 <bp_dump_trap_context>
    80000ea6:	00005517          	auipc	a0,0x5
    80000eaa:	9c250513          	add	a0,a0,-1598 # 80005868 <_open+0xda>
    80000eae:	d3fff0ef          	jal	80000bec <bp_panic>
    80000eb2:	0001                	nop
    80000eb4:	70a2                	ld	ra,40(sp)
    80000eb6:	7402                	ld	s0,32(sp)
    80000eb8:	6145                	add	sp,sp,48
    80000eba:	8082                	ret

0000000080000ebc <__mtvec_handler>:
    80000ebc:	34011173          	csrrw	sp,mscratch,sp
    80000ec0:	e07e                	sd	t6,0(sp)
    80000ec2:	ffe13c23          	sd	t5,-8(sp)
    80000ec6:	ffd13823          	sd	t4,-16(sp)
    80000eca:	ffc13423          	sd	t3,-24(sp)
    80000ece:	ffb13023          	sd	s11,-32(sp)
    80000ed2:	fda13c23          	sd	s10,-40(sp)
    80000ed6:	fd913823          	sd	s9,-48(sp)
    80000eda:	fd813423          	sd	s8,-56(sp)
    80000ede:	fd713023          	sd	s7,-64(sp)
    80000ee2:	fb613c23          	sd	s6,-72(sp)
    80000ee6:	fb513823          	sd	s5,-80(sp)
    80000eea:	fb413423          	sd	s4,-88(sp)
    80000eee:	fb313023          	sd	s3,-96(sp)
    80000ef2:	f9213c23          	sd	s2,-104(sp)
    80000ef6:	f9113823          	sd	a7,-112(sp)
    80000efa:	f9013423          	sd	a6,-120(sp)
    80000efe:	f8f13023          	sd	a5,-128(sp)
    80000f02:	f6e13c23          	sd	a4,-136(sp)
    80000f06:	f6d13823          	sd	a3,-144(sp)
    80000f0a:	f6c13423          	sd	a2,-152(sp)
    80000f0e:	f6b13023          	sd	a1,-160(sp)
    80000f12:	f4a13c23          	sd	a0,-168(sp)
    80000f16:	f4913823          	sd	s1,-176(sp)
    80000f1a:	f4813423          	sd	s0,-184(sp)
    80000f1e:	f4713023          	sd	t2,-192(sp)
    80000f22:	f2613c23          	sd	t1,-200(sp)
    80000f26:	f2513823          	sd	t0,-208(sp)
    80000f2a:	f2413423          	sd	tp,-216(sp)
    80000f2e:	f2313023          	sd	gp,-224(sp)
    80000f32:	340022f3          	csrr	t0,mscratch
    80000f36:	f0513c23          	sd	t0,-232(sp)
    80000f3a:	f0113823          	sd	ra,-240(sp)
    80000f3e:	f0013423          	sd	zero,-248(sp)
    80000f42:	7111                	add	sp,sp,-256
    80000f44:	0028                	add	a0,sp,8
    80000f46:	342025f3          	csrr	a1,mcause
    80000f4a:	34302673          	csrr	a2,mtval
    80000f4e:	9c9ff0ef          	jal	80000916 <bp_trap_handler>
    80000f52:	6111                	add	sp,sp,256
    80000f54:	34011073          	csrw	mscratch,sp
    80000f58:	f0813003          	ld	zero,-248(sp)
    80000f5c:	f1013083          	ld	ra,-240(sp)
    80000f60:	f2013183          	ld	gp,-224(sp)
    80000f64:	f2813203          	ld	tp,-216(sp)
    80000f68:	f3013283          	ld	t0,-208(sp)
    80000f6c:	f3813303          	ld	t1,-200(sp)
    80000f70:	f4013383          	ld	t2,-192(sp)
    80000f74:	f4813403          	ld	s0,-184(sp)
    80000f78:	f5013483          	ld	s1,-176(sp)
    80000f7c:	f5813503          	ld	a0,-168(sp)
    80000f80:	f6013583          	ld	a1,-160(sp)
    80000f84:	f6813603          	ld	a2,-152(sp)
    80000f88:	f7013683          	ld	a3,-144(sp)
    80000f8c:	f7813703          	ld	a4,-136(sp)
    80000f90:	f8013783          	ld	a5,-128(sp)
    80000f94:	f8813803          	ld	a6,-120(sp)
    80000f98:	f9013883          	ld	a7,-112(sp)
    80000f9c:	f9813903          	ld	s2,-104(sp)
    80000fa0:	fa013983          	ld	s3,-96(sp)
    80000fa4:	fa813a03          	ld	s4,-88(sp)
    80000fa8:	fb013a83          	ld	s5,-80(sp)
    80000fac:	fb813b03          	ld	s6,-72(sp)
    80000fb0:	fc013b83          	ld	s7,-64(sp)
    80000fb4:	fc813c03          	ld	s8,-56(sp)
    80000fb8:	fd013c83          	ld	s9,-48(sp)
    80000fbc:	fd813d03          	ld	s10,-40(sp)
    80000fc0:	fe013d83          	ld	s11,-32(sp)
    80000fc4:	fe813e03          	ld	t3,-24(sp)
    80000fc8:	ff013e83          	ld	t4,-16(sp)
    80000fcc:	ff813f03          	ld	t5,-8(sp)
    80000fd0:	6f82                	ld	t6,0(sp)
    80000fd2:	f1813103          	ld	sp,-232(sp)
    80000fd6:	30200073          	mret

0000000080000fda <mul_mulh>:
    80000fda:	02051613          	sll	a2,a0,0x20
    80000fde:	9201                	srl	a2,a2,0x20
    80000fe0:	02059693          	sll	a3,a1,0x20
    80000fe4:	9281                	srl	a3,a3,0x20
    80000fe6:	02d60733          	mul	a4,a2,a3
    80000fea:	42075793          	sra	a5,a4,0x20
    80000fee:	42055293          	sra	t0,a0,0x20
    80000ff2:	02d28733          	mul	a4,t0,a3
    80000ff6:	973e                	add	a4,a4,a5
    80000ff8:	02071793          	sll	a5,a4,0x20
    80000ffc:	9381                	srl	a5,a5,0x20
    80000ffe:	42075813          	sra	a6,a4,0x20
    80001002:	4205d313          	sra	t1,a1,0x20
    80001006:	02660733          	mul	a4,a2,t1
    8000100a:	973e                	add	a4,a4,a5
    8000100c:	42075793          	sra	a5,a4,0x20
    80001010:	026282b3          	mul	t0,t0,t1
    80001014:	92c2                	add	t0,t0,a6
    80001016:	00f28533          	add	a0,t0,a5
    8000101a:	00008067          	ret

000000008000101e <mul_mulhsu>:
    8000101e:	02051613          	sll	a2,a0,0x20
    80001022:	9201                	srl	a2,a2,0x20
    80001024:	02059693          	sll	a3,a1,0x20
    80001028:	9281                	srl	a3,a3,0x20
    8000102a:	02d60733          	mul	a4,a2,a3
    8000102e:	42075793          	sra	a5,a4,0x20
    80001032:	42055293          	sra	t0,a0,0x20
    80001036:	02d28733          	mul	a4,t0,a3
    8000103a:	973e                	add	a4,a4,a5
    8000103c:	02071793          	sll	a5,a4,0x20
    80001040:	9381                	srl	a5,a5,0x20
    80001042:	42075813          	sra	a6,a4,0x20
    80001046:	0205d313          	srl	t1,a1,0x20
    8000104a:	02660733          	mul	a4,a2,t1
    8000104e:	973e                	add	a4,a4,a5
    80001050:	02075793          	srl	a5,a4,0x20
    80001054:	026282b3          	mul	t0,t0,t1
    80001058:	92c2                	add	t0,t0,a6
    8000105a:	00f28533          	add	a0,t0,a5
    8000105e:	00008067          	ret

0000000080001062 <mul_mulhu>:
    80001062:	02051613          	sll	a2,a0,0x20
    80001066:	9201                	srl	a2,a2,0x20
    80001068:	02055293          	srl	t0,a0,0x20
    8000106c:	02059693          	sll	a3,a1,0x20
    80001070:	9281                	srl	a3,a3,0x20
    80001072:	0205d313          	srl	t1,a1,0x20
    80001076:	02d60733          	mul	a4,a2,a3
    8000107a:	02075793          	srl	a5,a4,0x20
    8000107e:	02d28733          	mul	a4,t0,a3
    80001082:	973e                	add	a4,a4,a5
    80001084:	02071793          	sll	a5,a4,0x20
    80001088:	9381                	srl	a5,a5,0x20
    8000108a:	02075813          	srl	a6,a4,0x20
    8000108e:	02660733          	mul	a4,a2,t1
    80001092:	973e                	add	a4,a4,a5
    80001094:	02075793          	srl	a5,a4,0x20
    80001098:	026282b3          	mul	t0,t0,t1
    8000109c:	92c2                	add	t0,t0,a6
    8000109e:	00f28533          	add	a0,t0,a5
    800010a2:	00008067          	ret

00000000800010a6 <memset>:
    800010a6:	433d                	li	t1,15
    800010a8:	872a                	mv	a4,a0
    800010aa:	02c37163          	bgeu	t1,a2,800010cc <memset+0x26>
    800010ae:	00f77793          	and	a5,a4,15
    800010b2:	e3c1                	bnez	a5,80001132 <memset+0x8c>
    800010b4:	e1bd                	bnez	a1,8000111a <memset+0x74>
    800010b6:	ff067693          	and	a3,a2,-16
    800010ba:	8a3d                	and	a2,a2,15
    800010bc:	96ba                	add	a3,a3,a4
    800010be:	e30c                	sd	a1,0(a4)
    800010c0:	e70c                	sd	a1,8(a4)
    800010c2:	0741                	add	a4,a4,16
    800010c4:	fed76de3          	bltu	a4,a3,800010be <memset+0x18>
    800010c8:	e211                	bnez	a2,800010cc <memset+0x26>
    800010ca:	8082                	ret
    800010cc:	40c306b3          	sub	a3,t1,a2
    800010d0:	068a                	sll	a3,a3,0x2
    800010d2:	00000297          	auipc	t0,0x0
    800010d6:	9696                	add	a3,a3,t0
    800010d8:	00a68067          	jr	10(a3)
    800010dc:	00b70723          	sb	a1,14(a4)
    800010e0:	00b706a3          	sb	a1,13(a4)
    800010e4:	00b70623          	sb	a1,12(a4)
    800010e8:	00b705a3          	sb	a1,11(a4)
    800010ec:	00b70523          	sb	a1,10(a4)
    800010f0:	00b704a3          	sb	a1,9(a4)
    800010f4:	00b70423          	sb	a1,8(a4)
    800010f8:	00b703a3          	sb	a1,7(a4)
    800010fc:	00b70323          	sb	a1,6(a4)
    80001100:	00b702a3          	sb	a1,5(a4)
    80001104:	00b70223          	sb	a1,4(a4)
    80001108:	00b701a3          	sb	a1,3(a4)
    8000110c:	00b70123          	sb	a1,2(a4)
    80001110:	00b700a3          	sb	a1,1(a4)
    80001114:	00b70023          	sb	a1,0(a4)
    80001118:	8082                	ret
    8000111a:	0ff5f593          	zext.b	a1,a1
    8000111e:	00859693          	sll	a3,a1,0x8
    80001122:	8dd5                	or	a1,a1,a3
    80001124:	01059693          	sll	a3,a1,0x10
    80001128:	8dd5                	or	a1,a1,a3
    8000112a:	02059693          	sll	a3,a1,0x20
    8000112e:	8dd5                	or	a1,a1,a3
    80001130:	b759                	j	800010b6 <memset+0x10>
    80001132:	00279693          	sll	a3,a5,0x2
    80001136:	00000297          	auipc	t0,0x0
    8000113a:	9696                	add	a3,a3,t0
    8000113c:	8286                	mv	t0,ra
    8000113e:	fa2680e7          	jalr	-94(a3)
    80001142:	8096                	mv	ra,t0
    80001144:	17c1                	add	a5,a5,-16
    80001146:	8f1d                	sub	a4,a4,a5
    80001148:	963e                	add	a2,a2,a5
    8000114a:	f8c371e3          	bgeu	t1,a2,800010cc <memset+0x26>
    8000114e:	b79d                	j	800010b4 <memset+0xe>

0000000080001150 <dramfs_init_fdtable>:
    80001150:	001ff797          	auipc	a5,0x1ff
    80001154:	f3878793          	add	a5,a5,-200 # 80200088 <dramfs_fdtable>
    80001158:	001ff717          	auipc	a4,0x1ff
    8000115c:	57070713          	add	a4,a4,1392 # 802006c8 <dramfs_fs>
    80001160:	0007a023          	sw	zero,0(a5)
    80001164:	0007a223          	sw	zero,4(a5)
    80001168:	05078793          	add	a5,a5,80
    8000116c:	fee79ae3          	bne	a5,a4,80001160 <dramfs_init_fdtable+0x10>
    80001170:	8082                	ret

0000000080001172 <dramfs_check_fd>:
    80001172:	47cd                	li	a5,19
    80001174:	00a7ef63          	bltu	a5,a0,80001192 <dramfs_check_fd+0x20>
    80001178:	00251793          	sll	a5,a0,0x2
    8000117c:	97aa                	add	a5,a5,a0
    8000117e:	0792                	sll	a5,a5,0x4
    80001180:	001ff717          	auipc	a4,0x1ff
    80001184:	f0870713          	add	a4,a4,-248 # 80200088 <dramfs_fdtable>
    80001188:	97ba                	add	a5,a5,a4
    8000118a:	439c                	lw	a5,0(a5)
    8000118c:	4501                	li	a0,0
    8000118e:	c391                	beqz	a5,80001192 <dramfs_check_fd+0x20>
    80001190:	8082                	ret
    80001192:	1141                	add	sp,sp,-16
    80001194:	e406                	sd	ra,8(sp)
    80001196:	1e0040ef          	jal	80005376 <__errno>
    8000119a:	47a5                	li	a5,9
    8000119c:	c11c                	sw	a5,0(a0)
    8000119e:	557d                	li	a0,-1
    800011a0:	60a2                	ld	ra,8(sp)
    800011a2:	0141                	add	sp,sp,16
    800011a4:	8082                	ret

00000000800011a6 <dramfs_nonblock_fd>:
    800011a6:	00251793          	sll	a5,a0,0x2
    800011aa:	97aa                	add	a5,a5,a0
    800011ac:	0792                	sll	a5,a5,0x4
    800011ae:	001ff717          	auipc	a4,0x1ff
    800011b2:	eda70713          	add	a4,a4,-294 # 80200088 <dramfs_fdtable>
    800011b6:	97ba                	add	a5,a5,a4
    800011b8:	43c8                	lw	a0,4(a5)
    800011ba:	157d                	add	a0,a0,-1
    800011bc:	00153513          	seqz	a0,a0
    800011c0:	8082                	ret

00000000800011c2 <dramfs_reserve_fd>:
    800011c2:	001ff797          	auipc	a5,0x1ff
    800011c6:	ec678793          	add	a5,a5,-314 # 80200088 <dramfs_fdtable>
    800011ca:	4501                	li	a0,0
    800011cc:	46d1                	li	a3,20
    800011ce:	4398                	lw	a4,0(a5)
    800011d0:	c305                	beqz	a4,800011f0 <dramfs_reserve_fd+0x2e>
    800011d2:	2505                	addw	a0,a0,1
    800011d4:	05078793          	add	a5,a5,80
    800011d8:	fed51be3          	bne	a0,a3,800011ce <dramfs_reserve_fd+0xc>
    800011dc:	1141                	add	sp,sp,-16
    800011de:	e406                	sd	ra,8(sp)
    800011e0:	196040ef          	jal	80005376 <__errno>
    800011e4:	47dd                	li	a5,23
    800011e6:	c11c                	sw	a5,0(a0)
    800011e8:	557d                	li	a0,-1
    800011ea:	60a2                	ld	ra,8(sp)
    800011ec:	0141                	add	sp,sp,16
    800011ee:	8082                	ret
    800011f0:	00251793          	sll	a5,a0,0x2
    800011f4:	97aa                	add	a5,a5,a0
    800011f6:	0792                	sll	a5,a5,0x4
    800011f8:	001ff717          	auipc	a4,0x1ff
    800011fc:	e9070713          	add	a4,a4,-368 # 80200088 <dramfs_fdtable>
    80001200:	97ba                	add	a5,a5,a4
    80001202:	4705                	li	a4,1
    80001204:	c398                	sw	a4,0(a5)
    80001206:	8082                	ret

0000000080001208 <dramfs_get_file>:
    80001208:	00251793          	sll	a5,a0,0x2
    8000120c:	97aa                	add	a5,a5,a0
    8000120e:	0792                	sll	a5,a5,0x4
    80001210:	001ff517          	auipc	a0,0x1ff
    80001214:	e8050513          	add	a0,a0,-384 # 80200090 <dramfs_fdtable+0x8>
    80001218:	953e                	add	a0,a0,a5
    8000121a:	8082                	ret

000000008000121c <dramfs_free_fd>:
    8000121c:	00251793          	sll	a5,a0,0x2
    80001220:	97aa                	add	a5,a5,a0
    80001222:	0792                	sll	a5,a5,0x4
    80001224:	001ff717          	auipc	a4,0x1ff
    80001228:	e6470713          	add	a4,a4,-412 # 80200088 <dramfs_fdtable>
    8000122c:	97ba                	add	a5,a5,a4
    8000122e:	4398                	lw	a4,0(a5)
    80001230:	4785                	li	a5,1
    80001232:	00f70463          	beq	a4,a5,8000123a <dramfs_free_fd+0x1e>
    80001236:	4501                	li	a0,0
    80001238:	8082                	ret
    8000123a:	1141                	add	sp,sp,-16
    8000123c:	e406                	sd	ra,8(sp)
    8000123e:	001ff597          	auipc	a1,0x1ff
    80001242:	e4a58593          	add	a1,a1,-438 # 80200088 <dramfs_fdtable>
    80001246:	00251793          	sll	a5,a0,0x2
    8000124a:	00a78733          	add	a4,a5,a0
    8000124e:	0712                	sll	a4,a4,0x4
    80001250:	972e                	add	a4,a4,a1
    80001252:	00072023          	sw	zero,0(a4)
    80001256:	97aa                	add	a5,a5,a0
    80001258:	0792                	sll	a5,a5,0x4
    8000125a:	07a1                	add	a5,a5,8
    8000125c:	95be                	add	a1,a1,a5
    8000125e:	001ff517          	auipc	a0,0x1ff
    80001262:	46a50513          	add	a0,a0,1130 # 802006c8 <dramfs_fs>
    80001266:	095020ef          	jal	80003afa <lfs_file_close>
    8000126a:	60a2                	ld	ra,8(sp)
    8000126c:	0141                	add	sp,sp,16
    8000126e:	8082                	ret

0000000080001270 <lfs_bd_erase>:
    80001270:	1141                	add	sp,sp,-16
    80001272:	e406                	sd	ra,8(sp)
    80001274:	6108                	ld	a0,0(a0)
    80001276:	6d1c                	ld	a5,24(a0)
    80001278:	9782                	jalr	a5
    8000127a:	60a2                	ld	ra,8(sp)
    8000127c:	0141                	add	sp,sp,16
    8000127e:	8082                	ret

0000000080001280 <lfs_alloc_lookahead>:
    80001280:	611c                	ld	a5,0(a0)
    80001282:	5bd8                	lw	a4,52(a5)
    80001284:	413c                	lw	a5,64(a0)
    80001286:	40f707bb          	subw	a5,a4,a5
    8000128a:	9dbd                	addw	a1,a1,a5
    8000128c:	02e5f5bb          	remuw	a1,a1,a4
    80001290:	0005879b          	sext.w	a5,a1
    80001294:	4178                	lw	a4,68(a0)
    80001296:	00e7fd63          	bgeu	a5,a4,800012b0 <lfs_alloc_lookahead+0x30>
    8000129a:	0055d71b          	srlw	a4,a1,0x5
    8000129e:	070a                	sll	a4,a4,0x2
    800012a0:	693c                	ld	a5,80(a0)
    800012a2:	97ba                	add	a5,a5,a4
    800012a4:	4685                	li	a3,1
    800012a6:	00b696bb          	sllw	a3,a3,a1
    800012aa:	4398                	lw	a4,0(a5)
    800012ac:	8f55                	or	a4,a4,a3
    800012ae:	c398                	sw	a4,0(a5)
    800012b0:	4501                	li	a0,0
    800012b2:	8082                	ret

00000000800012b4 <lfs_dir_fromle32>:
    800012b4:	4118                	lw	a4,0(a0)
    800012b6:	00875793          	srl	a5,a4,0x8
    800012ba:	0ff7f793          	zext.b	a5,a5
    800012be:	0087979b          	sllw	a5,a5,0x8
    800012c2:	01075693          	srl	a3,a4,0x10
    800012c6:	0ff6f693          	zext.b	a3,a3
    800012ca:	0106969b          	sllw	a3,a3,0x10
    800012ce:	8fd5                	or	a5,a5,a3
    800012d0:	0ff77693          	zext.b	a3,a4
    800012d4:	8fd5                	or	a5,a5,a3
    800012d6:	0187571b          	srlw	a4,a4,0x18
    800012da:	0187171b          	sllw	a4,a4,0x18
    800012de:	8fd9                	or	a5,a5,a4
    800012e0:	c11c                	sw	a5,0(a0)
    800012e2:	4158                	lw	a4,4(a0)
    800012e4:	00875793          	srl	a5,a4,0x8
    800012e8:	0ff7f793          	zext.b	a5,a5
    800012ec:	0087979b          	sllw	a5,a5,0x8
    800012f0:	01075693          	srl	a3,a4,0x10
    800012f4:	0ff6f693          	zext.b	a3,a3
    800012f8:	0106969b          	sllw	a3,a3,0x10
    800012fc:	8fd5                	or	a5,a5,a3
    800012fe:	0ff77693          	zext.b	a3,a4
    80001302:	8fd5                	or	a5,a5,a3
    80001304:	0187571b          	srlw	a4,a4,0x18
    80001308:	0187171b          	sllw	a4,a4,0x18
    8000130c:	8fd9                	or	a5,a5,a4
    8000130e:	c15c                	sw	a5,4(a0)
    80001310:	4518                	lw	a4,8(a0)
    80001312:	00875793          	srl	a5,a4,0x8
    80001316:	0ff7f793          	zext.b	a5,a5
    8000131a:	0087979b          	sllw	a5,a5,0x8
    8000131e:	01075693          	srl	a3,a4,0x10
    80001322:	0ff6f693          	zext.b	a3,a3
    80001326:	0106969b          	sllw	a3,a3,0x10
    8000132a:	8fd5                	or	a5,a5,a3
    8000132c:	0ff77693          	zext.b	a3,a4
    80001330:	8fd5                	or	a5,a5,a3
    80001332:	0187571b          	srlw	a4,a4,0x18
    80001336:	0187171b          	sllw	a4,a4,0x18
    8000133a:	8fd9                	or	a5,a5,a4
    8000133c:	c51c                	sw	a5,8(a0)
    8000133e:	4558                	lw	a4,12(a0)
    80001340:	00875793          	srl	a5,a4,0x8
    80001344:	0ff7f793          	zext.b	a5,a5
    80001348:	0087979b          	sllw	a5,a5,0x8
    8000134c:	01075693          	srl	a3,a4,0x10
    80001350:	0ff6f693          	zext.b	a3,a3
    80001354:	0106969b          	sllw	a3,a3,0x10
    80001358:	8fd5                	or	a5,a5,a3
    8000135a:	0ff77693          	zext.b	a3,a4
    8000135e:	8fd5                	or	a5,a5,a3
    80001360:	0187571b          	srlw	a4,a4,0x18
    80001364:	0187171b          	sllw	a4,a4,0x18
    80001368:	8fd9                	or	a5,a5,a4
    8000136a:	c55c                	sw	a5,12(a0)
    8000136c:	8082                	ret

000000008000136e <lfs_dir_tole32>:
    8000136e:	4118                	lw	a4,0(a0)
    80001370:	00875793          	srl	a5,a4,0x8
    80001374:	0ff7f793          	zext.b	a5,a5
    80001378:	0087979b          	sllw	a5,a5,0x8
    8000137c:	01075693          	srl	a3,a4,0x10
    80001380:	0ff6f693          	zext.b	a3,a3
    80001384:	0106969b          	sllw	a3,a3,0x10
    80001388:	8fd5                	or	a5,a5,a3
    8000138a:	0ff77693          	zext.b	a3,a4
    8000138e:	8fd5                	or	a5,a5,a3
    80001390:	0187571b          	srlw	a4,a4,0x18
    80001394:	0187171b          	sllw	a4,a4,0x18
    80001398:	8fd9                	or	a5,a5,a4
    8000139a:	c11c                	sw	a5,0(a0)
    8000139c:	4158                	lw	a4,4(a0)
    8000139e:	00875793          	srl	a5,a4,0x8
    800013a2:	0ff7f793          	zext.b	a5,a5
    800013a6:	0087979b          	sllw	a5,a5,0x8
    800013aa:	01075693          	srl	a3,a4,0x10
    800013ae:	0ff6f693          	zext.b	a3,a3
    800013b2:	0106969b          	sllw	a3,a3,0x10
    800013b6:	8fd5                	or	a5,a5,a3
    800013b8:	0ff77693          	zext.b	a3,a4
    800013bc:	8fd5                	or	a5,a5,a3
    800013be:	0187571b          	srlw	a4,a4,0x18
    800013c2:	0187171b          	sllw	a4,a4,0x18
    800013c6:	8fd9                	or	a5,a5,a4
    800013c8:	c15c                	sw	a5,4(a0)
    800013ca:	4518                	lw	a4,8(a0)
    800013cc:	00875793          	srl	a5,a4,0x8
    800013d0:	0ff7f793          	zext.b	a5,a5
    800013d4:	0087979b          	sllw	a5,a5,0x8
    800013d8:	01075693          	srl	a3,a4,0x10
    800013dc:	0ff6f693          	zext.b	a3,a3
    800013e0:	0106969b          	sllw	a3,a3,0x10
    800013e4:	8fd5                	or	a5,a5,a3
    800013e6:	0ff77693          	zext.b	a3,a4
    800013ea:	8fd5                	or	a5,a5,a3
    800013ec:	0187571b          	srlw	a4,a4,0x18
    800013f0:	0187171b          	sllw	a4,a4,0x18
    800013f4:	8fd9                	or	a5,a5,a4
    800013f6:	c51c                	sw	a5,8(a0)
    800013f8:	4558                	lw	a4,12(a0)
    800013fa:	00875793          	srl	a5,a4,0x8
    800013fe:	0ff7f793          	zext.b	a5,a5
    80001402:	0087979b          	sllw	a5,a5,0x8
    80001406:	01075693          	srl	a3,a4,0x10
    8000140a:	0ff6f693          	zext.b	a3,a3
    8000140e:	0106969b          	sllw	a3,a3,0x10
    80001412:	8fd5                	or	a5,a5,a3
    80001414:	0ff77693          	zext.b	a3,a4
    80001418:	8fd5                	or	a5,a5,a3
    8000141a:	0187571b          	srlw	a4,a4,0x18
    8000141e:	0187171b          	sllw	a4,a4,0x18
    80001422:	8fd9                	or	a5,a5,a4
    80001424:	c55c                	sw	a5,12(a0)
    80001426:	8082                	ret

0000000080001428 <lfs_entry_fromle32>:
    80001428:	4158                	lw	a4,4(a0)
    8000142a:	00875793          	srl	a5,a4,0x8
    8000142e:	0ff7f793          	zext.b	a5,a5
    80001432:	0087979b          	sllw	a5,a5,0x8
    80001436:	01075693          	srl	a3,a4,0x10
    8000143a:	0ff6f693          	zext.b	a3,a3
    8000143e:	0106969b          	sllw	a3,a3,0x10
    80001442:	8fd5                	or	a5,a5,a3
    80001444:	0ff77693          	zext.b	a3,a4
    80001448:	8fd5                	or	a5,a5,a3
    8000144a:	0187571b          	srlw	a4,a4,0x18
    8000144e:	0187171b          	sllw	a4,a4,0x18
    80001452:	8fd9                	or	a5,a5,a4
    80001454:	c15c                	sw	a5,4(a0)
    80001456:	4518                	lw	a4,8(a0)
    80001458:	00875793          	srl	a5,a4,0x8
    8000145c:	0ff7f793          	zext.b	a5,a5
    80001460:	0087979b          	sllw	a5,a5,0x8
    80001464:	01075693          	srl	a3,a4,0x10
    80001468:	0ff6f693          	zext.b	a3,a3
    8000146c:	0106969b          	sllw	a3,a3,0x10
    80001470:	8fd5                	or	a5,a5,a3
    80001472:	0ff77693          	zext.b	a3,a4
    80001476:	8fd5                	or	a5,a5,a3
    80001478:	0187571b          	srlw	a4,a4,0x18
    8000147c:	0187171b          	sllw	a4,a4,0x18
    80001480:	8fd9                	or	a5,a5,a4
    80001482:	c51c                	sw	a5,8(a0)
    80001484:	8082                	ret

0000000080001486 <lfs_entry_tole32>:
    80001486:	4158                	lw	a4,4(a0)
    80001488:	00875793          	srl	a5,a4,0x8
    8000148c:	0ff7f793          	zext.b	a5,a5
    80001490:	0087979b          	sllw	a5,a5,0x8
    80001494:	01075693          	srl	a3,a4,0x10
    80001498:	0ff6f693          	zext.b	a3,a3
    8000149c:	0106969b          	sllw	a3,a3,0x10
    800014a0:	8fd5                	or	a5,a5,a3
    800014a2:	0ff77693          	zext.b	a3,a4
    800014a6:	8fd5                	or	a5,a5,a3
    800014a8:	0187571b          	srlw	a4,a4,0x18
    800014ac:	0187171b          	sllw	a4,a4,0x18
    800014b0:	8fd9                	or	a5,a5,a4
    800014b2:	c15c                	sw	a5,4(a0)
    800014b4:	4518                	lw	a4,8(a0)
    800014b6:	00875793          	srl	a5,a4,0x8
    800014ba:	0ff7f793          	zext.b	a5,a5
    800014be:	0087979b          	sllw	a5,a5,0x8
    800014c2:	01075693          	srl	a3,a4,0x10
    800014c6:	0ff6f693          	zext.b	a3,a3
    800014ca:	0106969b          	sllw	a3,a3,0x10
    800014ce:	8fd5                	or	a5,a5,a3
    800014d0:	0ff77693          	zext.b	a3,a4
    800014d4:	8fd5                	or	a5,a5,a3
    800014d6:	0187571b          	srlw	a4,a4,0x18
    800014da:	0187171b          	sllw	a4,a4,0x18
    800014de:	8fd9                	or	a5,a5,a4
    800014e0:	c51c                	sw	a5,8(a0)
    800014e2:	8082                	ret

00000000800014e4 <lfs_cache_read>:
    800014e4:	715d                	add	sp,sp,-80
    800014e6:	e486                	sd	ra,72(sp)
    800014e8:	e0a2                	sd	s0,64(sp)
    800014ea:	fc26                	sd	s1,56(sp)
    800014ec:	f84a                	sd	s2,48(sp)
    800014ee:	f44e                	sd	s3,40(sp)
    800014f0:	f052                	sd	s4,32(sp)
    800014f2:	ec56                	sd	s5,24(sp)
    800014f4:	e85a                	sd	s6,16(sp)
    800014f6:	89aa                	mv	s3,a0
    800014f8:	84ae                	mv	s1,a1
    800014fa:	8a32                	mv	s4,a2
    800014fc:	8936                	mv	s2,a3
    800014fe:	843a                	mv	s0,a4
    80001500:	8abe                	mv	s5,a5
    80001502:	8b42                	mv	s6,a6
    80001504:	12080f63          	beqz	a6,80001642 <lfs_cache_read+0x15e>
    80001508:	e45e                	sd	s7,8(sp)
    8000150a:	a0c5                	j	800015ea <lfs_cache_read+0x106>
    8000150c:	004a2783          	lw	a5,4(s4)
    80001510:	0ef46363          	bltu	s0,a5,800015f6 <lfs_cache_read+0x112>
    80001514:	0009b703          	ld	a4,0(s3)
    80001518:	5758                	lw	a4,44(a4)
    8000151a:	9f3d                	addw	a4,a4,a5
    8000151c:	0007069b          	sext.w	a3,a4
    80001520:	0cd47b63          	bgeu	s0,a3,800015f6 <lfs_cache_read+0x112>
    80001524:	e062                	sd	s8,0(sp)
    80001526:	9f01                	subw	a4,a4,s0
    80001528:	8bba                	mv	s7,a4
    8000152a:	2701                	sext.w	a4,a4
    8000152c:	00eb7363          	bgeu	s6,a4,80001532 <lfs_cache_read+0x4e>
    80001530:	8bda                	mv	s7,s6
    80001532:	020b9c13          	sll	s8,s7,0x20
    80001536:	020c5c13          	srl	s8,s8,0x20
    8000153a:	40f407bb          	subw	a5,s0,a5
    8000153e:	1782                	sll	a5,a5,0x20
    80001540:	9381                	srl	a5,a5,0x20
    80001542:	008a3583          	ld	a1,8(s4)
    80001546:	8662                	mv	a2,s8
    80001548:	95be                	add	a1,a1,a5
    8000154a:	8556                	mv	a0,s5
    8000154c:	6a5030ef          	jal	800053f0 <memcpy>
    80001550:	9ae2                	add	s5,s5,s8
    80001552:	008b843b          	addw	s0,s7,s0
    80001556:	417b0b3b          	subw	s6,s6,s7
    8000155a:	6c02                	ld	s8,0(sp)
    8000155c:	a8b9                	j	800015ba <lfs_cache_read+0xd6>
    8000155e:	40dc                	lw	a5,4(s1)
    80001560:	08f46e63          	bltu	s0,a5,800015fc <lfs_cache_read+0x118>
    80001564:	0009b703          	ld	a4,0(s3)
    80001568:	5718                	lw	a4,40(a4)
    8000156a:	9f3d                	addw	a4,a4,a5
    8000156c:	0007069b          	sext.w	a3,a4
    80001570:	08d47663          	bgeu	s0,a3,800015fc <lfs_cache_read+0x118>
    80001574:	e062                	sd	s8,0(sp)
    80001576:	9f01                	subw	a4,a4,s0
    80001578:	8bba                	mv	s7,a4
    8000157a:	2701                	sext.w	a4,a4
    8000157c:	00eb7363          	bgeu	s6,a4,80001582 <lfs_cache_read+0x9e>
    80001580:	8bda                	mv	s7,s6
    80001582:	020b9c13          	sll	s8,s7,0x20
    80001586:	020c5c13          	srl	s8,s8,0x20
    8000158a:	40f407bb          	subw	a5,s0,a5
    8000158e:	1782                	sll	a5,a5,0x20
    80001590:	9381                	srl	a5,a5,0x20
    80001592:	648c                	ld	a1,8(s1)
    80001594:	8662                	mv	a2,s8
    80001596:	95be                	add	a1,a1,a5
    80001598:	8556                	mv	a0,s5
    8000159a:	657030ef          	jal	800053f0 <memcpy>
    8000159e:	9ae2                	add	s5,s5,s8
    800015a0:	008b843b          	addw	s0,s7,s0
    800015a4:	417b0b3b          	subw	s6,s6,s7
    800015a8:	6c02                	ld	s8,0(sp)
    800015aa:	a801                	j	800015ba <lfs_cache_read+0xd6>
    800015ac:	020b1793          	sll	a5,s6,0x20
    800015b0:	9381                	srl	a5,a5,0x20
    800015b2:	9abe                	add	s5,s5,a5
    800015b4:	008b043b          	addw	s0,s6,s0
    800015b8:	8b5e                	mv	s6,s7
    800015ba:	020b1863          	bnez	s6,800015ea <lfs_cache_read+0x106>
    800015be:	4501                	li	a0,0
    800015c0:	6ba2                	ld	s7,8(sp)
    800015c2:	a0a5                	j	8000162a <lfs_cache_read+0x146>
    800015c4:	0124a023          	sw	s2,0(s1)
    800015c8:	0009b783          	ld	a5,0(s3)
    800015cc:	5790                	lw	a2,40(a5)
    800015ce:	02c4763b          	remuw	a2,s0,a2
    800015d2:	40c4063b          	subw	a2,s0,a2
    800015d6:	c0d0                	sw	a2,4(s1)
    800015d8:	0009b503          	ld	a0,0(s3)
    800015dc:	651c                	ld	a5,8(a0)
    800015de:	5518                	lw	a4,40(a0)
    800015e0:	6494                	ld	a3,8(s1)
    800015e2:	2601                	sext.w	a2,a2
    800015e4:	85ca                	mv	a1,s2
    800015e6:	9782                	jalr	a5
    800015e8:	e939                	bnez	a0,8000163e <lfs_cache_read+0x15a>
    800015ea:	000a0663          	beqz	s4,800015f6 <lfs_cache_read+0x112>
    800015ee:	000a2783          	lw	a5,0(s4)
    800015f2:	f1278de3          	beq	a5,s2,8000150c <lfs_cache_read+0x28>
    800015f6:	409c                	lw	a5,0(s1)
    800015f8:	f72783e3          	beq	a5,s2,8000155e <lfs_cache_read+0x7a>
    800015fc:	0009b503          	ld	a0,0(s3)
    80001600:	551c                	lw	a5,40(a0)
    80001602:	02f4773b          	remuw	a4,s0,a5
    80001606:	ff5d                	bnez	a4,800015c4 <lfs_cache_read+0xe0>
    80001608:	fafb6ee3          	bltu	s6,a5,800015c4 <lfs_cache_read+0xe0>
    8000160c:	02fb77bb          	remuw	a5,s6,a5
    80001610:	00078b9b          	sext.w	s7,a5
    80001614:	40fb0b3b          	subw	s6,s6,a5
    80001618:	651c                	ld	a5,8(a0)
    8000161a:	000b071b          	sext.w	a4,s6
    8000161e:	86d6                	mv	a3,s5
    80001620:	8622                	mv	a2,s0
    80001622:	85ca                	mv	a1,s2
    80001624:	9782                	jalr	a5
    80001626:	d159                	beqz	a0,800015ac <lfs_cache_read+0xc8>
    80001628:	6ba2                	ld	s7,8(sp)
    8000162a:	60a6                	ld	ra,72(sp)
    8000162c:	6406                	ld	s0,64(sp)
    8000162e:	74e2                	ld	s1,56(sp)
    80001630:	7942                	ld	s2,48(sp)
    80001632:	79a2                	ld	s3,40(sp)
    80001634:	7a02                	ld	s4,32(sp)
    80001636:	6ae2                	ld	s5,24(sp)
    80001638:	6b42                	ld	s6,16(sp)
    8000163a:	6161                	add	sp,sp,80
    8000163c:	8082                	ret
    8000163e:	6ba2                	ld	s7,8(sp)
    80001640:	b7ed                	j	8000162a <lfs_cache_read+0x146>
    80001642:	4501                	li	a0,0
    80001644:	b7dd                	j	8000162a <lfs_cache_read+0x146>

0000000080001646 <lfs_bd_read>:
    80001646:	1141                	add	sp,sp,-16
    80001648:	e406                	sd	ra,8(sp)
    8000164a:	87b6                	mv	a5,a3
    8000164c:	883a                	mv	a6,a4
    8000164e:	8732                	mv	a4,a2
    80001650:	86ae                	mv	a3,a1
    80001652:	4601                	li	a2,0
    80001654:	02050593          	add	a1,a0,32
    80001658:	e8dff0ef          	jal	800014e4 <lfs_cache_read>
    8000165c:	60a2                	ld	ra,8(sp)
    8000165e:	0141                	add	sp,sp,16
    80001660:	8082                	ret

0000000080001662 <lfs_dir_fetch>:
    80001662:	7119                	add	sp,sp,-128
    80001664:	fc86                	sd	ra,120(sp)
    80001666:	f8a2                	sd	s0,112(sp)
    80001668:	f4a6                	sd	s1,104(sp)
    8000166a:	ecce                	sd	s3,88(sp)
    8000166c:	e8d2                	sd	s4,80(sp)
    8000166e:	e4d6                	sd	s5,72(sp)
    80001670:	e0da                	sd	s6,64(sp)
    80001672:	fc5e                	sd	s7,56(sp)
    80001674:	84aa                	mv	s1,a0
    80001676:	8a2e                	mv	s4,a1
    80001678:	421c                	lw	a5,0(a2)
    8000167a:	cc3e                	sw	a5,24(sp)
    8000167c:	425c                	lw	a5,4(a2)
    8000167e:	ce3e                	sw	a5,28(sp)
    80001680:	01810a93          	add	s5,sp,24
    80001684:	4b01                	li	s6,0
    80001686:	4b81                	li	s7,0
    80001688:	000aa983          	lw	s3,0(s5)
    8000168c:	4741                	li	a4,16
    8000168e:	0034                	add	a3,sp,8
    80001690:	4601                	li	a2,0
    80001692:	85ce                	mv	a1,s3
    80001694:	8526                	mv	a0,s1
    80001696:	fb1ff0ef          	jal	80001646 <lfs_bd_read>
    8000169a:	842a                	mv	s0,a0
    8000169c:	0028                	add	a0,sp,8
    8000169e:	c17ff0ef          	jal	800012b4 <lfs_dir_fromle32>
    800016a2:	c805                	beqz	s0,800016d2 <lfs_dir_fetch+0x70>
    800016a4:	fcc00793          	li	a5,-52
    800016a8:	00f41a63          	bne	s0,a5,800016bc <lfs_dir_fetch+0x5a>
    800016ac:	2b05                	addw	s6,s6,1
    800016ae:	0a91                	add	s5,s5,4
    800016b0:	4789                	li	a5,2
    800016b2:	fcfb1be3          	bne	s6,a5,80001688 <lfs_dir_fetch+0x26>
    800016b6:	100b8b63          	beqz	s7,800017cc <lfs_dir_fetch+0x16a>
    800016ba:	4401                	li	s0,0
    800016bc:	8522                	mv	a0,s0
    800016be:	70e6                	ld	ra,120(sp)
    800016c0:	7446                	ld	s0,112(sp)
    800016c2:	74a6                	ld	s1,104(sp)
    800016c4:	69e6                	ld	s3,88(sp)
    800016c6:	6a46                	ld	s4,80(sp)
    800016c8:	6aa6                	ld	s5,72(sp)
    800016ca:	6b06                	ld	s6,64(sp)
    800016cc:	7be2                	ld	s7,56(sp)
    800016ce:	6109                	add	sp,sp,128
    800016d0:	8082                	ret
    800016d2:	000b8863          	beqz	s7,800016e2 <lfs_dir_fetch+0x80>
    800016d6:	47a2                	lw	a5,8(sp)
    800016d8:	020a2703          	lw	a4,32(s4)
    800016dc:	9f99                	subw	a5,a5,a4
    800016de:	fc07c7e3          	bltz	a5,800016ac <lfs_dir_fetch+0x4a>
    800016e2:	47b2                	lw	a5,12(sp)
    800016e4:	1786                	sll	a5,a5,0x21
    800016e6:	9385                	srl	a5,a5,0x21
    800016e8:	474d                	li	a4,19
    800016ea:	fcf771e3          	bgeu	a4,a5,800016ac <lfs_dir_fetch+0x4a>
    800016ee:	6098                	ld	a4,0(s1)
    800016f0:	5b18                	lw	a4,48(a4)
    800016f2:	faf76de3          	bltu	a4,a5,800016ac <lfs_dir_fetch+0x4a>
    800016f6:	f862                	sd	s8,48(sp)
    800016f8:	f466                	sd	s9,40(sp)
    800016fa:	57fd                	li	a5,-1
    800016fc:	c23e                	sw	a5,4(sp)
    800016fe:	0028                	add	a0,sp,8
    80001700:	c6fff0ef          	jal	8000136e <lfs_dir_tole32>
    80001704:	4641                	li	a2,16
    80001706:	002c                	add	a1,sp,8
    80001708:	0048                	add	a0,sp,4
    8000170a:	563020ef          	jal	8000446c <lfs_crc>
    8000170e:	0028                	add	a0,sp,8
    80001710:	ba5ff0ef          	jal	800012b4 <lfs_dir_fromle32>
    80001714:	4c32                	lw	s8,12(sp)
    80001716:	1c06                	sll	s8,s8,0x21
    80001718:	021c5c13          	srl	s8,s8,0x21
    8000171c:	02048c93          	add	s9,s1,32
    80001720:	47c1                	li	a5,16
    80001722:	02fc0a63          	beq	s8,a5,80001756 <lfs_dir_fetch+0xf4>
    80001726:	f0ca                	sd	s2,96(sp)
    80001728:	4941                	li	s2,16
    8000172a:	4805                	li	a6,1
    8000172c:	00310793          	add	a5,sp,3
    80001730:	874a                	mv	a4,s2
    80001732:	86ce                	mv	a3,s3
    80001734:	4601                	li	a2,0
    80001736:	85e6                	mv	a1,s9
    80001738:	8526                	mv	a0,s1
    8000173a:	dabff0ef          	jal	800014e4 <lfs_cache_read>
    8000173e:	842a                	mv	s0,a0
    80001740:	e53d                	bnez	a0,800017ae <lfs_dir_fetch+0x14c>
    80001742:	4605                	li	a2,1
    80001744:	00310593          	add	a1,sp,3
    80001748:	0048                	add	a0,sp,4
    8000174a:	523020ef          	jal	8000446c <lfs_crc>
    8000174e:	2905                	addw	s2,s2,1
    80001750:	fd2c1de3          	bne	s8,s2,8000172a <lfs_dir_fetch+0xc8>
    80001754:	7906                	ld	s2,96(sp)
    80001756:	4792                	lw	a5,4(sp)
    80001758:	e7bd                	bnez	a5,800017c6 <lfs_dir_fetch+0x164>
    8000175a:	01fb571b          	srlw	a4,s6,0x1f
    8000175e:	016707bb          	addw	a5,a4,s6
    80001762:	8b85                	and	a5,a5,1
    80001764:	9f99                	subw	a5,a5,a4
    80001766:	078a                	sll	a5,a5,0x2
    80001768:	02078793          	add	a5,a5,32
    8000176c:	978a                	add	a5,a5,sp
    8000176e:	ff87a783          	lw	a5,-8(a5)
    80001772:	00fa2423          	sw	a5,8(s4)
    80001776:	001b079b          	addw	a5,s6,1
    8000177a:	01f7d71b          	srlw	a4,a5,0x1f
    8000177e:	9fb9                	addw	a5,a5,a4
    80001780:	8b85                	and	a5,a5,1
    80001782:	9f99                	subw	a5,a5,a4
    80001784:	078a                	sll	a5,a5,0x2
    80001786:	02078793          	add	a5,a5,32
    8000178a:	978a                	add	a5,a5,sp
    8000178c:	ff87a783          	lw	a5,-8(a5)
    80001790:	00fa2623          	sw	a5,12(s4)
    80001794:	47c1                	li	a5,16
    80001796:	00fa2823          	sw	a5,16(s4)
    8000179a:	67a2                	ld	a5,8(sp)
    8000179c:	02fa3023          	sd	a5,32(s4)
    800017a0:	67c2                	ld	a5,16(sp)
    800017a2:	02fa3423          	sd	a5,40(s4)
    800017a6:	4b85                	li	s7,1
    800017a8:	7c42                	ld	s8,48(sp)
    800017aa:	7ca2                	ld	s9,40(sp)
    800017ac:	b701                	j	800016ac <lfs_dir_fetch+0x4a>
    800017ae:	fcc00793          	li	a5,-52
    800017b2:	00f50663          	beq	a0,a5,800017be <lfs_dir_fetch+0x15c>
    800017b6:	7906                	ld	s2,96(sp)
    800017b8:	7c42                	ld	s8,48(sp)
    800017ba:	7ca2                	ld	s9,40(sp)
    800017bc:	b701                	j	800016bc <lfs_dir_fetch+0x5a>
    800017be:	7906                	ld	s2,96(sp)
    800017c0:	7c42                	ld	s8,48(sp)
    800017c2:	7ca2                	ld	s9,40(sp)
    800017c4:	b5e5                	j	800016ac <lfs_dir_fetch+0x4a>
    800017c6:	7c42                	ld	s8,48(sp)
    800017c8:	7ca2                	ld	s9,40(sp)
    800017ca:	b5cd                	j	800016ac <lfs_dir_fetch+0x4a>
    800017cc:	fcc00413          	li	s0,-52
    800017d0:	b5f5                	j	800016bc <lfs_dir_fetch+0x5a>

00000000800017d2 <lfs_dir_next>:
    800017d2:	715d                	add	sp,sp,-80
    800017d4:	e486                	sd	ra,72(sp)
    800017d6:	e0a2                	sd	s0,64(sp)
    800017d8:	fc26                	sd	s1,56(sp)
    800017da:	f84a                	sd	s2,48(sp)
    800017dc:	f44e                	sd	s3,40(sp)
    800017de:	e45e                	sd	s7,8(sp)
    800017e0:	89aa                	mv	s3,a0
    800017e2:	842e                	mv	s0,a1
    800017e4:	8bb2                	mv	s7,a2
    800017e6:	4990                	lw	a2,16(a1)
    800017e8:	51d8                	lw	a4,36(a1)
    800017ea:	02061693          	sll	a3,a2,0x20
    800017ee:	9281                	srl	a3,a3,0x20
    800017f0:	06b1                	add	a3,a3,12
    800017f2:	02171793          	sll	a5,a4,0x21
    800017f6:	9385                	srl	a5,a5,0x21
    800017f8:	37f1                	addw	a5,a5,-4
    800017fa:	1782                	sll	a5,a5,0x20
    800017fc:	9381                	srl	a5,a5,0x20
    800017fe:	04d7f663          	bgeu	a5,a3,8000184a <lfs_dir_next+0x78>
    80001802:	f052                	sd	s4,32(sp)
    80001804:	ec56                	sd	s5,24(sp)
    80001806:	e85a                	sd	s6,16(sp)
    80001808:	02858a93          	add	s5,a1,40
    8000180c:	4941                	li	s2,16
    8000180e:	80000a37          	lui	s4,0x80000
    80001812:	fffa4a13          	not	s4,s4
    80001816:	4b6d                	li	s6,27
    80001818:	08075163          	bgez	a4,8000189a <lfs_dir_next+0xc8>
    8000181c:	8656                	mv	a2,s5
    8000181e:	85a2                	mv	a1,s0
    80001820:	854e                	mv	a0,s3
    80001822:	e41ff0ef          	jal	80001662 <lfs_dir_fetch>
    80001826:	84aa                	mv	s1,a0
    80001828:	e941                	bnez	a0,800018b8 <lfs_dir_next+0xe6>
    8000182a:	01242823          	sw	s2,16(s0)
    8000182e:	4c5c                	lw	a5,28(s0)
    80001830:	27d1                	addw	a5,a5,20
    80001832:	cc5c                	sw	a5,28(s0)
    80001834:	5058                	lw	a4,36(s0)
    80001836:	864a                	mv	a2,s2
    80001838:	014777b3          	and	a5,a4,s4
    8000183c:	37f1                	addw	a5,a5,-4
    8000183e:	fcfb7de3          	bgeu	s6,a5,80001818 <lfs_dir_next+0x46>
    80001842:	4641                	li	a2,16
    80001844:	7a02                	ld	s4,32(sp)
    80001846:	6ae2                	ld	s5,24(sp)
    80001848:	6b42                	ld	s6,16(sp)
    8000184a:	004b8913          	add	s2,s7,4
    8000184e:	4731                	li	a4,12
    80001850:	86ca                	mv	a3,s2
    80001852:	440c                	lw	a1,8(s0)
    80001854:	854e                	mv	a0,s3
    80001856:	df1ff0ef          	jal	80001646 <lfs_bd_read>
    8000185a:	84aa                	mv	s1,a0
    8000185c:	854a                	mv	a0,s2
    8000185e:	bcbff0ef          	jal	80001428 <lfs_entry_fromle32>
    80001862:	e0b1                	bnez	s1,800018a6 <lfs_dir_next+0xd4>
    80001864:	4818                	lw	a4,16(s0)
    80001866:	00eba023          	sw	a4,0(s7)
    8000186a:	005bc783          	lbu	a5,5(s7)
    8000186e:	2791                	addw	a5,a5,4
    80001870:	006bc683          	lbu	a3,6(s7)
    80001874:	9fb5                	addw	a5,a5,a3
    80001876:	007bc683          	lbu	a3,7(s7)
    8000187a:	9fb5                	addw	a5,a5,a3
    8000187c:	9fb9                	addw	a5,a5,a4
    8000187e:	c81c                	sw	a5,16(s0)
    80001880:	005bc783          	lbu	a5,5(s7)
    80001884:	2791                	addw	a5,a5,4
    80001886:	006bc703          	lbu	a4,6(s7)
    8000188a:	9fb9                	addw	a5,a5,a4
    8000188c:	007bc703          	lbu	a4,7(s7)
    80001890:	9fb9                	addw	a5,a5,a4
    80001892:	4c58                	lw	a4,28(s0)
    80001894:	9fb9                	addw	a5,a5,a4
    80001896:	cc5c                	sw	a5,28(s0)
    80001898:	a039                	j	800018a6 <lfs_dir_next+0xd4>
    8000189a:	00cba023          	sw	a2,0(s7)
    8000189e:	54f9                	li	s1,-2
    800018a0:	7a02                	ld	s4,32(sp)
    800018a2:	6ae2                	ld	s5,24(sp)
    800018a4:	6b42                	ld	s6,16(sp)
    800018a6:	8526                	mv	a0,s1
    800018a8:	60a6                	ld	ra,72(sp)
    800018aa:	6406                	ld	s0,64(sp)
    800018ac:	74e2                	ld	s1,56(sp)
    800018ae:	7942                	ld	s2,48(sp)
    800018b0:	79a2                	ld	s3,40(sp)
    800018b2:	6ba2                	ld	s7,8(sp)
    800018b4:	6161                	add	sp,sp,80
    800018b6:	8082                	ret
    800018b8:	7a02                	ld	s4,32(sp)
    800018ba:	6ae2                	ld	s5,24(sp)
    800018bc:	6b42                	ld	s6,16(sp)
    800018be:	b7e5                	j	800018a6 <lfs_dir_next+0xd4>

00000000800018c0 <lfs_moved>:
    800018c0:	7119                	add	sp,sp,-128
    800018c2:	fc86                	sd	ra,120(sp)
    800018c4:	f0ca                	sd	s2,96(sp)
    800018c6:	4518                	lw	a4,8(a0)
    800018c8:	57fd                	li	a5,-1
    800018ca:	08f70063          	beq	a4,a5,8000194a <lfs_moved+0x8a>
    800018ce:	f8a2                	sd	s0,112(sp)
    800018d0:	f4a6                	sd	s1,104(sp)
    800018d2:	842a                	mv	s0,a0
    800018d4:	84ae                	mv	s1,a1
    800018d6:	4558                	lw	a4,12(a0)
    800018d8:	06f70f63          	beq	a4,a5,80001956 <lfs_moved+0x96>
    800018dc:	c482                	sw	zero,72(sp)
    800018de:	4785                	li	a5,1
    800018e0:	c6be                	sw	a5,76(sp)
    800018e2:	00b0                	add	a2,sp,72
    800018e4:	082c                	add	a1,sp,24
    800018e6:	d7dff0ef          	jal	80001662 <lfs_dir_fetch>
    800018ea:	892a                	mv	s2,a0
    800018ec:	e549                	bnez	a0,80001976 <lfs_moved+0xb6>
    800018ee:	ecce                	sd	s3,88(sp)
    800018f0:	e8d2                	sd	s4,80(sp)
    800018f2:	59fd                	li	s3,-1
    800018f4:	5a79                	li	s4,-2
    800018f6:	a019                	j	800018fc <lfs_moved+0x3c>
    800018f8:	07451963          	bne	a0,s4,8000196a <lfs_moved+0xaa>
    800018fc:	4786                	lw	a5,64(sp)
    800018fe:	07378f63          	beq	a5,s3,8000197c <lfs_moved+0xbc>
    80001902:	4796                	lw	a5,68(sp)
    80001904:	03378e63          	beq	a5,s3,80001940 <lfs_moved+0x80>
    80001908:	0090                	add	a2,sp,64
    8000190a:	082c                	add	a1,sp,24
    8000190c:	8522                	mv	a0,s0
    8000190e:	d55ff0ef          	jal	80001662 <lfs_dir_fetch>
    80001912:	e531                	bnez	a0,8000195e <lfs_moved+0x9e>
    80001914:	0030                	add	a2,sp,8
    80001916:	082c                	add	a1,sp,24
    80001918:	8522                	mv	a0,s0
    8000191a:	eb9ff0ef          	jal	800017d2 <lfs_dir_next>
    8000191e:	fd69                	bnez	a0,800018f8 <lfs_moved+0x38>
    80001920:	00c10783          	lb	a5,12(sp)
    80001924:	fe07c8e3          	bltz	a5,80001914 <lfs_moved+0x54>
    80001928:	4621                	li	a2,8
    8000192a:	85a6                	mv	a1,s1
    8000192c:	0808                	add	a0,sp,16
    8000192e:	26f030ef          	jal	8000539c <memcmp>
    80001932:	f16d                	bnez	a0,80001914 <lfs_moved+0x54>
    80001934:	4905                	li	s2,1
    80001936:	7446                	ld	s0,112(sp)
    80001938:	74a6                	ld	s1,104(sp)
    8000193a:	69e6                	ld	s3,88(sp)
    8000193c:	6a46                	ld	s4,80(sp)
    8000193e:	a039                	j	8000194c <lfs_moved+0x8c>
    80001940:	7446                	ld	s0,112(sp)
    80001942:	74a6                	ld	s1,104(sp)
    80001944:	69e6                	ld	s3,88(sp)
    80001946:	6a46                	ld	s4,80(sp)
    80001948:	a011                	j	8000194c <lfs_moved+0x8c>
    8000194a:	4901                	li	s2,0
    8000194c:	854a                	mv	a0,s2
    8000194e:	70e6                	ld	ra,120(sp)
    80001950:	7906                	ld	s2,96(sp)
    80001952:	6109                	add	sp,sp,128
    80001954:	8082                	ret
    80001956:	4901                	li	s2,0
    80001958:	7446                	ld	s0,112(sp)
    8000195a:	74a6                	ld	s1,104(sp)
    8000195c:	bfc5                	j	8000194c <lfs_moved+0x8c>
    8000195e:	892a                	mv	s2,a0
    80001960:	7446                	ld	s0,112(sp)
    80001962:	74a6                	ld	s1,104(sp)
    80001964:	69e6                	ld	s3,88(sp)
    80001966:	6a46                	ld	s4,80(sp)
    80001968:	b7d5                	j	8000194c <lfs_moved+0x8c>
    8000196a:	892a                	mv	s2,a0
    8000196c:	7446                	ld	s0,112(sp)
    8000196e:	74a6                	ld	s1,104(sp)
    80001970:	69e6                	ld	s3,88(sp)
    80001972:	6a46                	ld	s4,80(sp)
    80001974:	bfe1                	j	8000194c <lfs_moved+0x8c>
    80001976:	7446                	ld	s0,112(sp)
    80001978:	74a6                	ld	s1,104(sp)
    8000197a:	bfc9                	j	8000194c <lfs_moved+0x8c>
    8000197c:	7446                	ld	s0,112(sp)
    8000197e:	74a6                	ld	s1,104(sp)
    80001980:	69e6                	ld	s3,88(sp)
    80001982:	6a46                	ld	s4,80(sp)
    80001984:	b7e1                	j	8000194c <lfs_moved+0x8c>

0000000080001986 <lfs_parent>:
    80001986:	4518                	lw	a4,8(a0)
    80001988:	57fd                	li	a5,-1
    8000198a:	0af70263          	beq	a4,a5,80001a2e <lfs_parent+0xa8>
    8000198e:	7139                	add	sp,sp,-64
    80001990:	fc06                	sd	ra,56(sp)
    80001992:	f822                	sd	s0,48(sp)
    80001994:	f426                	sd	s1,40(sp)
    80001996:	f04a                	sd	s2,32(sp)
    80001998:	ec4e                	sd	s3,24(sp)
    8000199a:	892a                	mv	s2,a0
    8000199c:	89ae                	mv	s3,a1
    8000199e:	8432                	mv	s0,a2
    800019a0:	84b6                	mv	s1,a3
    800019a2:	4558                	lw	a4,12(a0)
    800019a4:	08f70763          	beq	a4,a5,80001a32 <lfs_parent+0xac>
    800019a8:	e852                	sd	s4,16(sp)
    800019aa:	e456                	sd	s5,8(sp)
    800019ac:	e05a                	sd	s6,0(sp)
    800019ae:	02062423          	sw	zero,40(a2)
    800019b2:	4785                	li	a5,1
    800019b4:	d65c                	sw	a5,44(a2)
    800019b6:	5afd                	li	s5,-1
    800019b8:	02860b13          	add	s6,a2,40
    800019bc:	02000a13          	li	s4,32
    800019c0:	541c                	lw	a5,40(s0)
    800019c2:	09578f63          	beq	a5,s5,80001a60 <lfs_parent+0xda>
    800019c6:	545c                	lw	a5,44(s0)
    800019c8:	05578e63          	beq	a5,s5,80001a24 <lfs_parent+0x9e>
    800019cc:	865a                	mv	a2,s6
    800019ce:	85a2                	mv	a1,s0
    800019d0:	854a                	mv	a0,s2
    800019d2:	c91ff0ef          	jal	80001662 <lfs_dir_fetch>
    800019d6:	e951                	bnez	a0,80001a6a <lfs_parent+0xe4>
    800019d8:	8626                	mv	a2,s1
    800019da:	85a2                	mv	a1,s0
    800019dc:	854a                	mv	a0,s2
    800019de:	df5ff0ef          	jal	800017d2 <lfs_dir_next>
    800019e2:	e915                	bnez	a0,80001a16 <lfs_parent+0x90>
    800019e4:	0044c783          	lbu	a5,4(s1)
    800019e8:	0707f793          	and	a5,a5,112
    800019ec:	ff4796e3          	bne	a5,s4,800019d8 <lfs_parent+0x52>
    800019f0:	449c                	lw	a5,8(s1)
    800019f2:	0009a703          	lw	a4,0(s3)
    800019f6:	04e78663          	beq	a5,a4,80001a42 <lfs_parent+0xbc>
    800019fa:	44d0                	lw	a2,12(s1)
    800019fc:	0049a683          	lw	a3,4(s3)
    80001a00:	04d60663          	beq	a2,a3,80001a4c <lfs_parent+0xc6>
    80001a04:	04d78963          	beq	a5,a3,80001a56 <lfs_parent+0xd0>
    80001a08:	fcc718e3          	bne	a4,a2,800019d8 <lfs_parent+0x52>
    80001a0c:	4505                	li	a0,1
    80001a0e:	6a42                	ld	s4,16(sp)
    80001a10:	6aa2                	ld	s5,8(sp)
    80001a12:	6b02                	ld	s6,0(sp)
    80001a14:	a005                	j	80001a34 <lfs_parent+0xae>
    80001a16:	57f9                	li	a5,-2
    80001a18:	faf504e3          	beq	a0,a5,800019c0 <lfs_parent+0x3a>
    80001a1c:	6a42                	ld	s4,16(sp)
    80001a1e:	6aa2                	ld	s5,8(sp)
    80001a20:	6b02                	ld	s6,0(sp)
    80001a22:	a809                	j	80001a34 <lfs_parent+0xae>
    80001a24:	4501                	li	a0,0
    80001a26:	6a42                	ld	s4,16(sp)
    80001a28:	6aa2                	ld	s5,8(sp)
    80001a2a:	6b02                	ld	s6,0(sp)
    80001a2c:	a021                	j	80001a34 <lfs_parent+0xae>
    80001a2e:	4501                	li	a0,0
    80001a30:	8082                	ret
    80001a32:	4501                	li	a0,0
    80001a34:	70e2                	ld	ra,56(sp)
    80001a36:	7442                	ld	s0,48(sp)
    80001a38:	74a2                	ld	s1,40(sp)
    80001a3a:	7902                	ld	s2,32(sp)
    80001a3c:	69e2                	ld	s3,24(sp)
    80001a3e:	6121                	add	sp,sp,64
    80001a40:	8082                	ret
    80001a42:	4505                	li	a0,1
    80001a44:	6a42                	ld	s4,16(sp)
    80001a46:	6aa2                	ld	s5,8(sp)
    80001a48:	6b02                	ld	s6,0(sp)
    80001a4a:	b7ed                	j	80001a34 <lfs_parent+0xae>
    80001a4c:	4505                	li	a0,1
    80001a4e:	6a42                	ld	s4,16(sp)
    80001a50:	6aa2                	ld	s5,8(sp)
    80001a52:	6b02                	ld	s6,0(sp)
    80001a54:	b7c5                	j	80001a34 <lfs_parent+0xae>
    80001a56:	4505                	li	a0,1
    80001a58:	6a42                	ld	s4,16(sp)
    80001a5a:	6aa2                	ld	s5,8(sp)
    80001a5c:	6b02                	ld	s6,0(sp)
    80001a5e:	bfd9                	j	80001a34 <lfs_parent+0xae>
    80001a60:	4501                	li	a0,0
    80001a62:	6a42                	ld	s4,16(sp)
    80001a64:	6aa2                	ld	s5,8(sp)
    80001a66:	6b02                	ld	s6,0(sp)
    80001a68:	b7f1                	j	80001a34 <lfs_parent+0xae>
    80001a6a:	6a42                	ld	s4,16(sp)
    80001a6c:	6aa2                	ld	s5,8(sp)
    80001a6e:	6b02                	ld	s6,0(sp)
    80001a70:	b7d1                	j	80001a34 <lfs_parent+0xae>

0000000080001a72 <lfs_pred>:
    80001a72:	7139                	add	sp,sp,-64
    80001a74:	fc06                	sd	ra,56(sp)
    80001a76:	f04a                	sd	s2,32(sp)
    80001a78:	4518                	lw	a4,8(a0)
    80001a7a:	57fd                	li	a5,-1
    80001a7c:	06f70a63          	beq	a4,a5,80001af0 <lfs_pred+0x7e>
    80001a80:	f822                	sd	s0,48(sp)
    80001a82:	f426                	sd	s1,40(sp)
    80001a84:	ec4e                	sd	s3,24(sp)
    80001a86:	842a                	mv	s0,a0
    80001a88:	89ae                	mv	s3,a1
    80001a8a:	84b2                	mv	s1,a2
    80001a8c:	4558                	lw	a4,12(a0)
    80001a8e:	06f70763          	beq	a4,a5,80001afc <lfs_pred+0x8a>
    80001a92:	c402                	sw	zero,8(sp)
    80001a94:	4785                	li	a5,1
    80001a96:	c63e                	sw	a5,12(sp)
    80001a98:	0030                	add	a2,sp,8
    80001a9a:	85a6                	mv	a1,s1
    80001a9c:	bc7ff0ef          	jal	80001662 <lfs_dir_fetch>
    80001aa0:	892a                	mv	s2,a0
    80001aa2:	e951                	bnez	a0,80001b36 <lfs_pred+0xc4>
    80001aa4:	e852                	sd	s4,16(sp)
    80001aa6:	5a7d                	li	s4,-1
    80001aa8:	549c                	lw	a5,40(s1)
    80001aaa:	09478a63          	beq	a5,s4,80001b3e <lfs_pred+0xcc>
    80001aae:	54d8                	lw	a4,44(s1)
    80001ab0:	03470b63          	beq	a4,s4,80001ae6 <lfs_pred+0x74>
    80001ab4:	0009a683          	lw	a3,0(s3)
    80001ab8:	04f68763          	beq	a3,a5,80001b06 <lfs_pred+0x94>
    80001abc:	0049a603          	lw	a2,4(s3)
    80001ac0:	04e60963          	beq	a2,a4,80001b12 <lfs_pred+0xa0>
    80001ac4:	04f60d63          	beq	a2,a5,80001b1e <lfs_pred+0xac>
    80001ac8:	06e68163          	beq	a3,a4,80001b2a <lfs_pred+0xb8>
    80001acc:	02848613          	add	a2,s1,40
    80001ad0:	85a6                	mv	a1,s1
    80001ad2:	8522                	mv	a0,s0
    80001ad4:	b8fff0ef          	jal	80001662 <lfs_dir_fetch>
    80001ad8:	d961                	beqz	a0,80001aa8 <lfs_pred+0x36>
    80001ada:	892a                	mv	s2,a0
    80001adc:	7442                	ld	s0,48(sp)
    80001ade:	74a2                	ld	s1,40(sp)
    80001ae0:	69e2                	ld	s3,24(sp)
    80001ae2:	6a42                	ld	s4,16(sp)
    80001ae4:	a039                	j	80001af2 <lfs_pred+0x80>
    80001ae6:	7442                	ld	s0,48(sp)
    80001ae8:	74a2                	ld	s1,40(sp)
    80001aea:	69e2                	ld	s3,24(sp)
    80001aec:	6a42                	ld	s4,16(sp)
    80001aee:	a011                	j	80001af2 <lfs_pred+0x80>
    80001af0:	4901                	li	s2,0
    80001af2:	854a                	mv	a0,s2
    80001af4:	70e2                	ld	ra,56(sp)
    80001af6:	7902                	ld	s2,32(sp)
    80001af8:	6121                	add	sp,sp,64
    80001afa:	8082                	ret
    80001afc:	4901                	li	s2,0
    80001afe:	7442                	ld	s0,48(sp)
    80001b00:	74a2                	ld	s1,40(sp)
    80001b02:	69e2                	ld	s3,24(sp)
    80001b04:	b7fd                	j	80001af2 <lfs_pred+0x80>
    80001b06:	4905                	li	s2,1
    80001b08:	7442                	ld	s0,48(sp)
    80001b0a:	74a2                	ld	s1,40(sp)
    80001b0c:	69e2                	ld	s3,24(sp)
    80001b0e:	6a42                	ld	s4,16(sp)
    80001b10:	b7cd                	j	80001af2 <lfs_pred+0x80>
    80001b12:	4905                	li	s2,1
    80001b14:	7442                	ld	s0,48(sp)
    80001b16:	74a2                	ld	s1,40(sp)
    80001b18:	69e2                	ld	s3,24(sp)
    80001b1a:	6a42                	ld	s4,16(sp)
    80001b1c:	bfd9                	j	80001af2 <lfs_pred+0x80>
    80001b1e:	4905                	li	s2,1
    80001b20:	7442                	ld	s0,48(sp)
    80001b22:	74a2                	ld	s1,40(sp)
    80001b24:	69e2                	ld	s3,24(sp)
    80001b26:	6a42                	ld	s4,16(sp)
    80001b28:	b7e9                	j	80001af2 <lfs_pred+0x80>
    80001b2a:	4905                	li	s2,1
    80001b2c:	7442                	ld	s0,48(sp)
    80001b2e:	74a2                	ld	s1,40(sp)
    80001b30:	69e2                	ld	s3,24(sp)
    80001b32:	6a42                	ld	s4,16(sp)
    80001b34:	bf7d                	j	80001af2 <lfs_pred+0x80>
    80001b36:	7442                	ld	s0,48(sp)
    80001b38:	74a2                	ld	s1,40(sp)
    80001b3a:	69e2                	ld	s3,24(sp)
    80001b3c:	bf5d                	j	80001af2 <lfs_pred+0x80>
    80001b3e:	7442                	ld	s0,48(sp)
    80001b40:	74a2                	ld	s1,40(sp)
    80001b42:	69e2                	ld	s3,24(sp)
    80001b44:	6a42                	ld	s4,16(sp)
    80001b46:	b775                	j	80001af2 <lfs_pred+0x80>

0000000080001b48 <lfs_cache_cmp>:
    80001b48:	06080763          	beqz	a6,80001bb6 <lfs_cache_cmp+0x6e>
    80001b4c:	715d                	add	sp,sp,-80
    80001b4e:	e486                	sd	ra,72(sp)
    80001b50:	e0a2                	sd	s0,64(sp)
    80001b52:	fc26                	sd	s1,56(sp)
    80001b54:	f84a                	sd	s2,48(sp)
    80001b56:	f44e                	sd	s3,40(sp)
    80001b58:	f052                	sd	s4,32(sp)
    80001b5a:	ec56                	sd	s5,24(sp)
    80001b5c:	e85a                	sd	s6,16(sp)
    80001b5e:	89aa                	mv	s3,a0
    80001b60:	8a2e                	mv	s4,a1
    80001b62:	8ab2                	mv	s5,a2
    80001b64:	8b36                	mv	s6,a3
    80001b66:	1802                	sll	a6,a6,0x20
    80001b68:	02085813          	srl	a6,a6,0x20
    80001b6c:	010784b3          	add	s1,a5,a6
    80001b70:	843e                	mv	s0,a5
    80001b72:	40f7093b          	subw	s2,a4,a5
    80001b76:	4805                	li	a6,1
    80001b78:	00f10793          	add	a5,sp,15
    80001b7c:	0089073b          	addw	a4,s2,s0
    80001b80:	86da                	mv	a3,s6
    80001b82:	8656                	mv	a2,s5
    80001b84:	85d2                	mv	a1,s4
    80001b86:	854e                	mv	a0,s3
    80001b88:	95dff0ef          	jal	800014e4 <lfs_cache_read>
    80001b8c:	e919                	bnez	a0,80001ba2 <lfs_cache_cmp+0x5a>
    80001b8e:	00044703          	lbu	a4,0(s0)
    80001b92:	00f14783          	lbu	a5,15(sp)
    80001b96:	00f71663          	bne	a4,a5,80001ba2 <lfs_cache_cmp+0x5a>
    80001b9a:	0405                	add	s0,s0,1
    80001b9c:	fc941de3          	bne	s0,s1,80001b76 <lfs_cache_cmp+0x2e>
    80001ba0:	4505                	li	a0,1
    80001ba2:	60a6                	ld	ra,72(sp)
    80001ba4:	6406                	ld	s0,64(sp)
    80001ba6:	74e2                	ld	s1,56(sp)
    80001ba8:	7942                	ld	s2,48(sp)
    80001baa:	79a2                	ld	s3,40(sp)
    80001bac:	7a02                	ld	s4,32(sp)
    80001bae:	6ae2                	ld	s5,24(sp)
    80001bb0:	6b42                	ld	s6,16(sp)
    80001bb2:	6161                	add	sp,sp,80
    80001bb4:	8082                	ret
    80001bb6:	4505                	li	a0,1
    80001bb8:	8082                	ret

0000000080001bba <lfs_dir_find>:
    80001bba:	7175                	add	sp,sp,-144
    80001bbc:	e506                	sd	ra,136(sp)
    80001bbe:	e122                	sd	s0,128(sp)
    80001bc0:	fca6                	sd	s1,120(sp)
    80001bc2:	f8ca                	sd	s2,112(sp)
    80001bc4:	f4ce                	sd	s3,104(sp)
    80001bc6:	f0d2                	sd	s4,96(sp)
    80001bc8:	ecd6                	sd	s5,88(sp)
    80001bca:	e8da                	sd	s6,80(sp)
    80001bcc:	e4de                	sd	s7,72(sp)
    80001bce:	e0e2                	sd	s8,64(sp)
    80001bd0:	fc66                	sd	s9,56(sp)
    80001bd2:	f86a                	sd	s10,48(sp)
    80001bd4:	f46e                	sd	s11,40(sp)
    80001bd6:	8a2a                	mv	s4,a0
    80001bd8:	8aae                	mv	s5,a1
    80001bda:	8932                	mv	s2,a2
    80001bdc:	e836                	sd	a3,16(sp)
    80001bde:	0006bd03          	ld	s10,0(a3)
    80001be2:	02200793          	li	a5,34
    80001be6:	00f60223          	sb	a5,4(a2)
    80001bea:	47a1                	li	a5,8
    80001bec:	00f602a3          	sb	a5,5(a2)
    80001bf0:	00060323          	sb	zero,6(a2)
    80001bf4:	000603a3          	sb	zero,7(a2)
    80001bf8:	451c                	lw	a5,8(a0)
    80001bfa:	c61c                	sw	a5,8(a2)
    80001bfc:	455c                	lw	a5,12(a0)
    80001bfe:	c65c                	sw	a5,12(a2)
    80001c00:	4d85                	li	s11,1
    80001c02:	00860793          	add	a5,a2,8
    80001c06:	ec3e                	sd	a5,24(sp)
    80001c08:	4c45                	li	s8,17
    80001c0a:	02050793          	add	a5,a0,32
    80001c0e:	e43e                	sd	a5,8(sp)
    80001c10:	00004597          	auipc	a1,0x4
    80001c14:	cb858593          	add	a1,a1,-840 # 800058c8 <rtable.0+0x40>
    80001c18:	856a                	mv	a0,s10
    80001c1a:	2d5030ef          	jal	800056ee <strspn>
    80001c1e:	00ad0cb3          	add	s9,s10,a0
    80001c22:	00004597          	auipc	a1,0x4
    80001c26:	ca658593          	add	a1,a1,-858 # 800058c8 <rtable.0+0x40>
    80001c2a:	8566                	mv	a0,s9
    80001c2c:	1d5030ef          	jal	80005600 <strcspn>
    80001c30:	8baa                	mv	s7,a0
    80001c32:	01b50b63          	beq	a0,s11,80001c48 <lfs_dir_find+0x8e>
    80001c36:	4789                	li	a5,2
    80001c38:	00f50f63          	beq	a0,a5,80001c56 <lfs_dir_find+0x9c>
    80001c3c:	017c8d33          	add	s10,s9,s7
    80001c40:	84ea                	mv	s1,s10
    80001c42:	89ee                	mv	s3,s11
    80001c44:	4b09                	li	s6,2
    80001c46:	a035                	j	80001c72 <lfs_dir_find+0xb8>
    80001c48:	000cc703          	lbu	a4,0(s9)
    80001c4c:	02e00793          	li	a5,46
    80001c50:	fef716e3          	bne	a4,a5,80001c3c <lfs_dir_find+0x82>
    80001c54:	a811                	j	80001c68 <lfs_dir_find+0xae>
    80001c56:	4609                	li	a2,2
    80001c58:	00004597          	auipc	a1,0x4
    80001c5c:	c7858593          	add	a1,a1,-904 # 800058d0 <rtable.0+0x48>
    80001c60:	8566                	mv	a0,s9
    80001c62:	73a030ef          	jal	8000539c <memcmp>
    80001c66:	f979                	bnez	a0,80001c3c <lfs_dir_find+0x82>
    80001c68:	017c8d33          	add	s10,s9,s7
    80001c6c:	b755                	j	80001c10 <lfs_dir_find+0x56>
    80001c6e:	2985                	addw	s3,s3,1
    80001c70:	94a2                	add	s1,s1,s0
    80001c72:	00004597          	auipc	a1,0x4
    80001c76:	c5658593          	add	a1,a1,-938 # 800058c8 <rtable.0+0x40>
    80001c7a:	8526                	mv	a0,s1
    80001c7c:	273030ef          	jal	800056ee <strspn>
    80001c80:	94aa                	add	s1,s1,a0
    80001c82:	00004597          	auipc	a1,0x4
    80001c86:	c4658593          	add	a1,a1,-954 # 800058c8 <rtable.0+0x40>
    80001c8a:	8526                	mv	a0,s1
    80001c8c:	175030ef          	jal	80005600 <strcspn>
    80001c90:	842a                	mv	s0,a0
    80001c92:	c115                	beqz	a0,80001cb6 <lfs_dir_find+0xfc>
    80001c94:	fd651de3          	bne	a0,s6,80001c6e <lfs_dir_find+0xb4>
    80001c98:	865a                	mv	a2,s6
    80001c9a:	00004597          	auipc	a1,0x4
    80001c9e:	c3658593          	add	a1,a1,-970 # 800058d0 <rtable.0+0x48>
    80001ca2:	8526                	mv	a0,s1
    80001ca4:	6f8030ef          	jal	8000539c <memcmp>
    80001ca8:	f179                	bnez	a0,80001c6e <lfs_dir_find+0xb4>
    80001caa:	39fd                	addw	s3,s3,-1
    80001cac:	fc0992e3          	bnez	s3,80001c70 <lfs_dir_find+0xb6>
    80001cb0:	00248d13          	add	s10,s1,2
    80001cb4:	bfb1                	j	80001c10 <lfs_dir_find+0x56>
    80001cb6:	000cc783          	lbu	a5,0(s9)
    80001cba:	c7cd                	beqz	a5,80001d64 <lfs_dir_find+0x1aa>
    80001cbc:	67c2                	ld	a5,16(sp)
    80001cbe:	0197b023          	sd	s9,0(a5)
    80001cc2:	00494703          	lbu	a4,4(s2)
    80001cc6:	02200793          	li	a5,34
    80001cca:	0af71d63          	bne	a4,a5,80001d84 <lfs_dir_find+0x1ca>
    80001cce:	6662                	ld	a2,24(sp)
    80001cd0:	85d6                	mv	a1,s5
    80001cd2:	8552                	mv	a0,s4
    80001cd4:	98fff0ef          	jal	80001662 <lfs_dir_fetch>
    80001cd8:	e559                	bnez	a0,80001d66 <lfs_dir_find+0x1ac>
    80001cda:	000b849b          	sext.w	s1,s7
    80001cde:	02200413          	li	s0,34
    80001ce2:	a029                	j	80001cec <lfs_dir_find+0x132>
    80001ce4:	00794783          	lbu	a5,7(s2)
    80001ce8:	03778163          	beq	a5,s7,80001d0a <lfs_dir_find+0x150>
    80001cec:	864a                	mv	a2,s2
    80001cee:	85d6                	mv	a1,s5
    80001cf0:	8552                	mv	a0,s4
    80001cf2:	ae1ff0ef          	jal	800017d2 <lfs_dir_next>
    80001cf6:	e925                	bnez	a0,80001d66 <lfs_dir_find+0x1ac>
    80001cf8:	00494783          	lbu	a5,4(s2)
    80001cfc:	07f7f793          	and	a5,a5,127
    80001d00:	ff8782e3          	beq	a5,s8,80001ce4 <lfs_dir_find+0x12a>
    80001d04:	fe8780e3          	beq	a5,s0,80001ce4 <lfs_dir_find+0x12a>
    80001d08:	b7d5                	j	80001cec <lfs_dir_find+0x132>
    80001d0a:	00092703          	lw	a4,0(s2)
    80001d0e:	2711                	addw	a4,a4,4
    80001d10:	00594783          	lbu	a5,5(s2)
    80001d14:	9f3d                	addw	a4,a4,a5
    80001d16:	00694683          	lbu	a3,6(s2)
    80001d1a:	8826                	mv	a6,s1
    80001d1c:	87e6                	mv	a5,s9
    80001d1e:	9f35                	addw	a4,a4,a3
    80001d20:	008aa683          	lw	a3,8(s5)
    80001d24:	4601                	li	a2,0
    80001d26:	65a2                	ld	a1,8(sp)
    80001d28:	8552                	mv	a0,s4
    80001d2a:	e1fff0ef          	jal	80001b48 <lfs_cache_cmp>
    80001d2e:	02054c63          	bltz	a0,80001d66 <lfs_dir_find+0x1ac>
    80001d32:	dd4d                	beqz	a0,80001cec <lfs_dir_find+0x132>
    80001d34:	059a4783          	lbu	a5,89(s4) # ffffffff80000059 <_sp+0xfffffffef1000059>
    80001d38:	ec079ce3          	bnez	a5,80001c10 <lfs_dir_find+0x56>
    80001d3c:	00490783          	lb	a5,4(s2)
    80001d40:	ec07d8e3          	bgez	a5,80001c10 <lfs_dir_find+0x56>
    80001d44:	65e2                	ld	a1,24(sp)
    80001d46:	8552                	mv	a0,s4
    80001d48:	b79ff0ef          	jal	800018c0 <lfs_moved>
    80001d4c:	e901                	bnez	a0,80001d5c <lfs_dir_find+0x1a2>
    80001d4e:	00494783          	lbu	a5,4(s2)
    80001d52:	07f7f793          	and	a5,a5,127
    80001d56:	00f90223          	sb	a5,4(s2)
    80001d5a:	bd5d                	j	80001c10 <lfs_dir_find+0x56>
    80001d5c:	00054563          	bltz	a0,80001d66 <lfs_dir_find+0x1ac>
    80001d60:	5579                	li	a0,-2
    80001d62:	a011                	j	80001d66 <lfs_dir_find+0x1ac>
    80001d64:	4501                	li	a0,0
    80001d66:	60aa                	ld	ra,136(sp)
    80001d68:	640a                	ld	s0,128(sp)
    80001d6a:	74e6                	ld	s1,120(sp)
    80001d6c:	7946                	ld	s2,112(sp)
    80001d6e:	79a6                	ld	s3,104(sp)
    80001d70:	7a06                	ld	s4,96(sp)
    80001d72:	6ae6                	ld	s5,88(sp)
    80001d74:	6b46                	ld	s6,80(sp)
    80001d76:	6ba6                	ld	s7,72(sp)
    80001d78:	6c06                	ld	s8,64(sp)
    80001d7a:	7ce2                	ld	s9,56(sp)
    80001d7c:	7d42                	ld	s10,48(sp)
    80001d7e:	7da2                	ld	s11,40(sp)
    80001d80:	6149                	add	sp,sp,144
    80001d82:	8082                	ret
    80001d84:	5531                	li	a0,-20
    80001d86:	b7c5                	j	80001d66 <lfs_dir_find+0x1ac>

0000000080001d88 <lfs_deinit>:
    80001d88:	1141                	add	sp,sp,-16
    80001d8a:	e406                	sd	ra,8(sp)
    80001d8c:	e022                	sd	s0,0(sp)
    80001d8e:	842a                	mv	s0,a0
    80001d90:	611c                	ld	a5,0(a0)
    80001d92:	63bc                	ld	a5,64(a5)
    80001d94:	cb99                	beqz	a5,80001daa <lfs_deinit+0x22>
    80001d96:	601c                	ld	a5,0(s0)
    80001d98:	67bc                	ld	a5,72(a5)
    80001d9a:	cf81                	beqz	a5,80001db2 <lfs_deinit+0x2a>
    80001d9c:	601c                	ld	a5,0(s0)
    80001d9e:	6bbc                	ld	a5,80(a5)
    80001da0:	cf89                	beqz	a5,80001dba <lfs_deinit+0x32>
    80001da2:	60a2                	ld	ra,8(sp)
    80001da4:	6402                	ld	s0,0(sp)
    80001da6:	0141                	add	sp,sp,16
    80001da8:	8082                	ret
    80001daa:	7508                	ld	a0,40(a0)
    80001dac:	5e2030ef          	jal	8000538e <free>
    80001db0:	b7dd                	j	80001d96 <lfs_deinit+0xe>
    80001db2:	7c08                	ld	a0,56(s0)
    80001db4:	5da030ef          	jal	8000538e <free>
    80001db8:	b7d5                	j	80001d9c <lfs_deinit+0x14>
    80001dba:	6828                	ld	a0,80(s0)
    80001dbc:	5d2030ef          	jal	8000538e <free>
    80001dc0:	b7cd                	j	80001da2 <lfs_deinit+0x1a>

0000000080001dc2 <lfs_ctz_index>:
    80001dc2:	0005a803          	lw	a6,0(a1)
    80001dc6:	611c                	ld	a5,0(a0)
    80001dc8:	5b98                	lw	a4,48(a5)
    80001dca:	3761                	addw	a4,a4,-8
    80001dcc:	0007079b          	sext.w	a5,a4
    80001dd0:	0af86563          	bltu	a6,a5,80001e7a <lfs_ctz_index+0xb8>
    80001dd4:	02e857bb          	divuw	a5,a6,a4
    80001dd8:	37fd                	addw	a5,a5,-1
    80001dda:	0017d69b          	srlw	a3,a5,0x1
    80001dde:	55555337          	lui	t1,0x55555
    80001de2:	55530313          	add	t1,t1,1365 # 55555555 <_start-0x2aaaaaab>
    80001de6:	0066f6b3          	and	a3,a3,t1
    80001dea:	9f95                	subw	a5,a5,a3
    80001dec:	333336b7          	lui	a3,0x33333
    80001df0:	33368693          	add	a3,a3,819 # 33333333 <_start-0x4ccccccd>
    80001df4:	00f6f633          	and	a2,a3,a5
    80001df8:	0027d79b          	srlw	a5,a5,0x2
    80001dfc:	8ff5                	and	a5,a5,a3
    80001dfe:	9fb1                	addw	a5,a5,a2
    80001e00:	0047d61b          	srlw	a2,a5,0x4
    80001e04:	9e3d                	addw	a2,a2,a5
    80001e06:	0f0f18b7          	lui	a7,0xf0f1
    80001e0a:	f0f88893          	add	a7,a7,-241 # f0f0f0f <_start-0x70f0f0f1>
    80001e0e:	01167633          	and	a2,a2,a7
    80001e12:	0086179b          	sllw	a5,a2,0x8
    80001e16:	9fb1                	addw	a5,a5,a2
    80001e18:	0107961b          	sllw	a2,a5,0x10
    80001e1c:	00c7853b          	addw	a0,a5,a2
    80001e20:	0185551b          	srlw	a0,a0,0x18
    80001e24:	2509                	addw	a0,a0,2
    80001e26:	0025151b          	sllw	a0,a0,0x2
    80001e2a:	40a8053b          	subw	a0,a6,a0
    80001e2e:	02e5553b          	divuw	a0,a0,a4
    80001e32:	0015561b          	srlw	a2,a0,0x1
    80001e36:	00667633          	and	a2,a2,t1
    80001e3a:	40c5063b          	subw	a2,a0,a2
    80001e3e:	00c6f7b3          	and	a5,a3,a2
    80001e42:	0026561b          	srlw	a2,a2,0x2
    80001e46:	8ef1                	and	a3,a3,a2
    80001e48:	9fb5                	addw	a5,a5,a3
    80001e4a:	02a7073b          	mulw	a4,a4,a0
    80001e4e:	40e8073b          	subw	a4,a6,a4
    80001e52:	0047d69b          	srlw	a3,a5,0x4
    80001e56:	9ebd                	addw	a3,a3,a5
    80001e58:	0116f6b3          	and	a3,a3,a7
    80001e5c:	0086979b          	sllw	a5,a3,0x8
    80001e60:	9fb5                	addw	a5,a5,a3
    80001e62:	0107969b          	sllw	a3,a5,0x10
    80001e66:	9fb5                	addw	a5,a5,a3
    80001e68:	0187d79b          	srlw	a5,a5,0x18
    80001e6c:	0027979b          	sllw	a5,a5,0x2
    80001e70:	40f707bb          	subw	a5,a4,a5
    80001e74:	c19c                	sw	a5,0(a1)
    80001e76:	2501                	sext.w	a0,a0
    80001e78:	8082                	ret
    80001e7a:	4501                	li	a0,0
    80001e7c:	8082                	ret

0000000080001e7e <lfs_ctz_traverse>:
    80001e7e:	e319                	bnez	a4,80001e84 <lfs_ctz_traverse+0x6>
    80001e80:	4501                	li	a0,0
    80001e82:	8082                	ret
    80001e84:	711d                	add	sp,sp,-96
    80001e86:	ec86                	sd	ra,88(sp)
    80001e88:	e8a2                	sd	s0,80(sp)
    80001e8a:	e4a6                	sd	s1,72(sp)
    80001e8c:	e0ca                	sd	s2,64(sp)
    80001e8e:	fc4e                	sd	s3,56(sp)
    80001e90:	f852                	sd	s4,48(sp)
    80001e92:	f456                	sd	s5,40(sp)
    80001e94:	f05a                	sd	s6,32(sp)
    80001e96:	ec5e                	sd	s7,24(sp)
    80001e98:	e862                	sd	s8,16(sp)
    80001e9a:	89aa                	mv	s3,a0
    80001e9c:	8a2e                	mv	s4,a1
    80001e9e:	8ab2                	mv	s5,a2
    80001ea0:	8c36                	mv	s8,a3
    80001ea2:	843e                	mv	s0,a5
    80001ea4:	84c2                	mv	s1,a6
    80001ea6:	377d                	addw	a4,a4,-1
    80001ea8:	c63a                	sw	a4,12(sp)
    80001eaa:	006c                	add	a1,sp,12
    80001eac:	f17ff0ef          	jal	80001dc2 <lfs_ctz_index>
    80001eb0:	0005091b          	sext.w	s2,a0
    80001eb4:	4b89                	li	s7,2
    80001eb6:	85e2                	mv	a1,s8
    80001eb8:	8526                	mv	a0,s1
    80001eba:	9402                	jalr	s0
    80001ebc:	e555                	bnez	a0,80001f68 <lfs_ctz_traverse+0xea>
    80001ebe:	0a090563          	beqz	s2,80001f68 <lfs_ctz_traverse+0xea>
    80001ec2:	00197b13          	and	s6,s2,1
    80001ec6:	416b883b          	subw	a6,s7,s6
    80001eca:	0028181b          	sllw	a6,a6,0x2
    80001ece:	878a                	mv	a5,sp
    80001ed0:	4701                	li	a4,0
    80001ed2:	86e2                	mv	a3,s8
    80001ed4:	8656                	mv	a2,s5
    80001ed6:	85d2                	mv	a1,s4
    80001ed8:	854e                	mv	a0,s3
    80001eda:	e0aff0ef          	jal	800014e4 <lfs_cache_read>
    80001ede:	4782                	lw	a5,0(sp)
    80001ee0:	0087d713          	srl	a4,a5,0x8
    80001ee4:	0ff77713          	zext.b	a4,a4
    80001ee8:	0087171b          	sllw	a4,a4,0x8
    80001eec:	0107d693          	srl	a3,a5,0x10
    80001ef0:	0ff6f693          	zext.b	a3,a3
    80001ef4:	0106969b          	sllw	a3,a3,0x10
    80001ef8:	8f55                	or	a4,a4,a3
    80001efa:	0ff7f693          	zext.b	a3,a5
    80001efe:	8f55                	or	a4,a4,a3
    80001f00:	0187d79b          	srlw	a5,a5,0x18
    80001f04:	0187979b          	sllw	a5,a5,0x18
    80001f08:	8f5d                	or	a4,a4,a5
    80001f0a:	0007059b          	sext.w	a1,a4
    80001f0e:	c02e                	sw	a1,0(sp)
    80001f10:	4712                	lw	a4,4(sp)
    80001f12:	00875793          	srl	a5,a4,0x8
    80001f16:	0ff7f793          	zext.b	a5,a5
    80001f1a:	0087979b          	sllw	a5,a5,0x8
    80001f1e:	01075693          	srl	a3,a4,0x10
    80001f22:	0ff6f693          	zext.b	a3,a3
    80001f26:	0106969b          	sllw	a3,a3,0x10
    80001f2a:	8fd5                	or	a5,a5,a3
    80001f2c:	0ff77693          	zext.b	a3,a4
    80001f30:	8fd5                	or	a5,a5,a3
    80001f32:	0187571b          	srlw	a4,a4,0x18
    80001f36:	0187171b          	sllw	a4,a4,0x18
    80001f3a:	8fd9                	or	a5,a5,a4
    80001f3c:	c23e                	sw	a5,4(sp)
    80001f3e:	e50d                	bnez	a0,80001f68 <lfs_ctz_traverse+0xea>
    80001f40:	fff94c13          	not	s8,s2
    80001f44:	001c7c13          	and	s8,s8,1
    80001f48:	01805563          	blez	s8,80001f52 <lfs_ctz_traverse+0xd4>
    80001f4c:	8526                	mv	a0,s1
    80001f4e:	9402                	jalr	s0
    80001f50:	ed01                	bnez	a0,80001f68 <lfs_ctz_traverse+0xea>
    80001f52:	0c0a                	sll	s8,s8,0x2
    80001f54:	010c0793          	add	a5,s8,16
    80001f58:	00278c33          	add	s8,a5,sp
    80001f5c:	ff0c2c03          	lw	s8,-16(s8)
    80001f60:	3979                	addw	s2,s2,-2
    80001f62:	0169093b          	addw	s2,s2,s6
    80001f66:	bf81                	j	80001eb6 <lfs_ctz_traverse+0x38>
    80001f68:	60e6                	ld	ra,88(sp)
    80001f6a:	6446                	ld	s0,80(sp)
    80001f6c:	64a6                	ld	s1,72(sp)
    80001f6e:	6906                	ld	s2,64(sp)
    80001f70:	79e2                	ld	s3,56(sp)
    80001f72:	7a42                	ld	s4,48(sp)
    80001f74:	7aa2                	ld	s5,40(sp)
    80001f76:	7b02                	ld	s6,32(sp)
    80001f78:	6be2                	ld	s7,24(sp)
    80001f7a:	6c42                	ld	s8,16(sp)
    80001f7c:	6125                	add	sp,sp,96
    80001f7e:	8082                	ret

0000000080001f80 <lfs_init>:
    80001f80:	1101                	add	sp,sp,-32
    80001f82:	ec06                	sd	ra,24(sp)
    80001f84:	e822                	sd	s0,16(sp)
    80001f86:	e426                	sd	s1,8(sp)
    80001f88:	842a                	mv	s0,a0
    80001f8a:	84ae                	mv	s1,a1
    80001f8c:	e10c                	sd	a1,0(a0)
    80001f8e:	61bc                	ld	a5,64(a1)
    80001f90:	c7a1                	beqz	a5,80001fd8 <lfs_init+0x58>
    80001f92:	f51c                	sd	a5,40(a0)
    80001f94:	64bc                	ld	a5,72(s1)
    80001f96:	cfa1                	beqz	a5,80001fee <lfs_init+0x6e>
    80001f98:	fc1c                	sd	a5,56(s0)
    80001f9a:	02c4e603          	lwu	a2,44(s1)
    80001f9e:	0ff00593          	li	a1,255
    80001fa2:	7c08                	ld	a0,56(s0)
    80001fa4:	902ff0ef          	jal	800010a6 <memset>
    80001fa8:	57fd                	li	a5,-1
    80001faa:	d81c                	sw	a5,48(s0)
    80001fac:	d01c                	sw	a5,32(s0)
    80001fae:	6018                	ld	a4,0(s0)
    80001fb0:	6b3c                	ld	a5,80(a4)
    80001fb2:	c7a9                	beqz	a5,80001ffc <lfs_init+0x7c>
    80001fb4:	e83c                	sd	a5,80(s0)
    80001fb6:	57fd                	li	a5,-1
    80001fb8:	c41c                	sw	a5,8(s0)
    80001fba:	c45c                	sw	a5,12(s0)
    80001fbc:	00043823          	sd	zero,16(s0)
    80001fc0:	00043c23          	sd	zero,24(s0)
    80001fc4:	04040c23          	sb	zero,88(s0)
    80001fc8:	04040ca3          	sb	zero,89(s0)
    80001fcc:	4501                	li	a0,0
    80001fce:	60e2                	ld	ra,24(sp)
    80001fd0:	6442                	ld	s0,16(sp)
    80001fd2:	64a2                	ld	s1,8(sp)
    80001fd4:	6105                	add	sp,sp,32
    80001fd6:	8082                	ret
    80001fd8:	0285e503          	lwu	a0,40(a1)
    80001fdc:	3a4030ef          	jal	80005380 <malloc>
    80001fe0:	f408                	sd	a0,40(s0)
    80001fe2:	f94d                	bnez	a0,80001f94 <lfs_init+0x14>
    80001fe4:	8522                	mv	a0,s0
    80001fe6:	da3ff0ef          	jal	80001d88 <lfs_deinit>
    80001fea:	5551                	li	a0,-12
    80001fec:	b7cd                	j	80001fce <lfs_init+0x4e>
    80001fee:	02c4e503          	lwu	a0,44(s1)
    80001ff2:	38e030ef          	jal	80005380 <malloc>
    80001ff6:	fc08                	sd	a0,56(s0)
    80001ff8:	f14d                	bnez	a0,80001f9a <lfs_init+0x1a>
    80001ffa:	b7ed                	j	80001fe4 <lfs_init+0x64>
    80001ffc:	5f08                	lw	a0,56(a4)
    80001ffe:	0035551b          	srlw	a0,a0,0x3
    80002002:	37e030ef          	jal	80005380 <malloc>
    80002006:	e828                	sd	a0,80(s0)
    80002008:	f55d                	bnez	a0,80001fb6 <lfs_init+0x36>
    8000200a:	bfe9                	j	80001fe4 <lfs_init+0x64>

000000008000200c <lfs_ctz_find>:
    8000200c:	7175                	add	sp,sp,-144
    8000200e:	e506                	sd	ra,136(sp)
    80002010:	f86a                	sd	s10,48(sp)
    80002012:	f46e                	sd	s11,40(sp)
    80002014:	e02a                	sd	a0,0(sp)
    80002016:	8dc2                	mv	s11,a6
    80002018:	8d46                	mv	s10,a7
    8000201a:	c636                	sw	a3,12(sp)
    8000201c:	c43e                	sw	a5,8(sp)
    8000201e:	ef01                	bnez	a4,80002036 <lfs_ctz_find+0x2a>
    80002020:	57fd                	li	a5,-1
    80002022:	00f82023          	sw	a5,0(a6)
    80002026:	0008a023          	sw	zero,0(a7)
    8000202a:	4501                	li	a0,0
    8000202c:	60aa                	ld	ra,136(sp)
    8000202e:	7d42                	ld	s10,48(sp)
    80002030:	7da2                	ld	s11,40(sp)
    80002032:	6149                	add	sp,sp,144
    80002034:	8082                	ret
    80002036:	e122                	sd	s0,128(sp)
    80002038:	fca6                	sd	s1,120(sp)
    8000203a:	f8ca                	sd	s2,112(sp)
    8000203c:	e4de                	sd	s7,72(sp)
    8000203e:	e0e2                	sd	s8,64(sp)
    80002040:	8bae                	mv	s7,a1
    80002042:	8c32                	mv	s8,a2
    80002044:	377d                	addw	a4,a4,-1
    80002046:	ce3a                	sw	a4,28(sp)
    80002048:	086c                	add	a1,sp,28
    8000204a:	6482                	ld	s1,0(sp)
    8000204c:	8526                	mv	a0,s1
    8000204e:	d75ff0ef          	jal	80001dc2 <lfs_ctz_index>
    80002052:	0005041b          	sext.w	s0,a0
    80002056:	002c                	add	a1,sp,8
    80002058:	8526                	mv	a0,s1
    8000205a:	d69ff0ef          	jal	80001dc2 <lfs_ctz_index>
    8000205e:	0005091b          	sext.w	s2,a0
    80002062:	12897b63          	bgeu	s2,s0,80002198 <lfs_ctz_find+0x18c>
    80002066:	f4ce                	sd	s3,104(sp)
    80002068:	f0d2                	sd	s4,96(sp)
    8000206a:	ecd6                	sd	s5,88(sp)
    8000206c:	e8da                	sd	s6,80(sp)
    8000206e:	fc66                	sd	s9,56(sp)
    80002070:	69c1                	lui	s3,0x10
    80002072:	19fd                	add	s3,s3,-1 # ffff <_start-0x7fff0001>
    80002074:	0ff00b13          	li	s6,255
    80002078:	4abd                	li	s5,15
    8000207a:	4a0d                	li	s4,3
    8000207c:	4c85                	li	s9,1
    8000207e:	a891                	j	800020d2 <lfs_ctz_find+0xc6>
    80002080:	0007049b          	sext.w	s1,a4
    80002084:	4811                	li	a6,4
    80002086:	007c                	add	a5,sp,12
    80002088:	0027171b          	sllw	a4,a4,0x2
    8000208c:	46b2                	lw	a3,12(sp)
    8000208e:	8662                	mv	a2,s8
    80002090:	85de                	mv	a1,s7
    80002092:	6502                	ld	a0,0(sp)
    80002094:	c50ff0ef          	jal	800014e4 <lfs_cache_read>
    80002098:	4732                	lw	a4,12(sp)
    8000209a:	00875793          	srl	a5,a4,0x8
    8000209e:	0ff7f793          	zext.b	a5,a5
    800020a2:	0087979b          	sllw	a5,a5,0x8
    800020a6:	01075693          	srl	a3,a4,0x10
    800020aa:	0ff6f693          	zext.b	a3,a3
    800020ae:	0106969b          	sllw	a3,a3,0x10
    800020b2:	8fd5                	or	a5,a5,a3
    800020b4:	0ff77693          	zext.b	a3,a4
    800020b8:	8fd5                	or	a5,a5,a3
    800020ba:	0187571b          	srlw	a4,a4,0x18
    800020be:	0187171b          	sllw	a4,a4,0x18
    800020c2:	8fd9                	or	a5,a5,a4
    800020c4:	c63e                	sw	a5,12(sp)
    800020c6:	e575                	bnez	a0,800021b2 <lfs_ctz_find+0x1a6>
    800020c8:	009c94bb          	sllw	s1,s9,s1
    800020cc:	9c05                	subw	s0,s0,s1
    800020ce:	0c897063          	bgeu	s2,s0,8000218e <lfs_ctz_find+0x182>
    800020d2:	4124063b          	subw	a2,s0,s2
    800020d6:	0006069b          	sext.w	a3,a2
    800020da:	00d9b6b3          	sltu	a3,s3,a3
    800020de:	0046969b          	sllw	a3,a3,0x4
    800020e2:	00d6563b          	srlw	a2,a2,a3
    800020e6:	0006079b          	sext.w	a5,a2
    800020ea:	00fb37b3          	sltu	a5,s6,a5
    800020ee:	0037979b          	sllw	a5,a5,0x3
    800020f2:	00f6563b          	srlw	a2,a2,a5
    800020f6:	0006071b          	sext.w	a4,a2
    800020fa:	8fd5                	or	a5,a5,a3
    800020fc:	2781                	sext.w	a5,a5
    800020fe:	00eab733          	sltu	a4,s5,a4
    80002102:	0027171b          	sllw	a4,a4,0x2
    80002106:	00e6563b          	srlw	a2,a2,a4
    8000210a:	0006059b          	sext.w	a1,a2
    8000210e:	8fd9                	or	a5,a5,a4
    80002110:	0007869b          	sext.w	a3,a5
    80002114:	00ba35b3          	sltu	a1,s4,a1
    80002118:	0015959b          	sllw	a1,a1,0x1
    8000211c:	408007bb          	negw	a5,s0
    80002120:	8fe1                	and	a5,a5,s0
    80002122:	2781                	sext.w	a5,a5
    80002124:	00f9b533          	sltu	a0,s3,a5
    80002128:	0045151b          	sllw	a0,a0,0x4
    8000212c:	00a7d7bb          	srlw	a5,a5,a0
    80002130:	0007871b          	sext.w	a4,a5
    80002134:	00eb3733          	sltu	a4,s6,a4
    80002138:	0037171b          	sllw	a4,a4,0x3
    8000213c:	00e7d7bb          	srlw	a5,a5,a4
    80002140:	0007881b          	sext.w	a6,a5
    80002144:	8f49                	or	a4,a4,a0
    80002146:	2701                	sext.w	a4,a4
    80002148:	010ab833          	sltu	a6,s5,a6
    8000214c:	0028181b          	sllw	a6,a6,0x2
    80002150:	0107d7bb          	srlw	a5,a5,a6
    80002154:	0007851b          	sext.w	a0,a5
    80002158:	01076733          	or	a4,a4,a6
    8000215c:	2701                	sext.w	a4,a4
    8000215e:	00aa3533          	sltu	a0,s4,a0
    80002162:	0015151b          	sllw	a0,a0,0x1
    80002166:	00b6563b          	srlw	a2,a2,a1
    8000216a:	0016561b          	srlw	a2,a2,0x1
    8000216e:	8ecd                	or	a3,a3,a1
    80002170:	8ed1                	or	a3,a3,a2
    80002172:	00a7d7bb          	srlw	a5,a5,a0
    80002176:	0017d79b          	srlw	a5,a5,0x1
    8000217a:	8f49                	or	a4,a4,a0
    8000217c:	8fd9                	or	a5,a5,a4
    8000217e:	8736                	mv	a4,a3
    80002180:	2681                	sext.w	a3,a3
    80002182:	0007861b          	sext.w	a2,a5
    80002186:	eed67de3          	bgeu	a2,a3,80002080 <lfs_ctz_find+0x74>
    8000218a:	873e                	mv	a4,a5
    8000218c:	bdd5                	j	80002080 <lfs_ctz_find+0x74>
    8000218e:	79a6                	ld	s3,104(sp)
    80002190:	7a06                	ld	s4,96(sp)
    80002192:	6ae6                	ld	s5,88(sp)
    80002194:	6b46                	ld	s6,80(sp)
    80002196:	7ce2                	ld	s9,56(sp)
    80002198:	47b2                	lw	a5,12(sp)
    8000219a:	00fda023          	sw	a5,0(s11)
    8000219e:	47a2                	lw	a5,8(sp)
    800021a0:	00fd2023          	sw	a5,0(s10)
    800021a4:	4501                	li	a0,0
    800021a6:	640a                	ld	s0,128(sp)
    800021a8:	74e6                	ld	s1,120(sp)
    800021aa:	7946                	ld	s2,112(sp)
    800021ac:	6ba6                	ld	s7,72(sp)
    800021ae:	6c06                	ld	s8,64(sp)
    800021b0:	bdb5                	j	8000202c <lfs_ctz_find+0x20>
    800021b2:	640a                	ld	s0,128(sp)
    800021b4:	74e6                	ld	s1,120(sp)
    800021b6:	7946                	ld	s2,112(sp)
    800021b8:	79a6                	ld	s3,104(sp)
    800021ba:	7a06                	ld	s4,96(sp)
    800021bc:	6ae6                	ld	s5,88(sp)
    800021be:	6b46                	ld	s6,80(sp)
    800021c0:	6ba6                	ld	s7,72(sp)
    800021c2:	6c06                	ld	s8,64(sp)
    800021c4:	7ce2                	ld	s9,56(sp)
    800021c6:	b59d                	j	8000202c <lfs_ctz_find+0x20>

00000000800021c8 <lfs_cache_flush>:
    800021c8:	7179                	add	sp,sp,-48
    800021ca:	f406                	sd	ra,40(sp)
    800021cc:	f022                	sd	s0,32(sp)
    800021ce:	ec26                	sd	s1,24(sp)
    800021d0:	842e                	mv	s0,a1
    800021d2:	418c                	lw	a1,0(a1)
    800021d4:	57fd                	li	a5,-1
    800021d6:	06f58263          	beq	a1,a5,8000223a <lfs_cache_flush+0x72>
    800021da:	e84a                	sd	s2,16(sp)
    800021dc:	e44e                	sd	s3,8(sp)
    800021de:	89aa                	mv	s3,a0
    800021e0:	8932                	mv	s2,a2
    800021e2:	6108                	ld	a0,0(a0)
    800021e4:	691c                	ld	a5,16(a0)
    800021e6:	5558                	lw	a4,44(a0)
    800021e8:	6414                	ld	a3,8(s0)
    800021ea:	4050                	lw	a2,4(s0)
    800021ec:	9782                	jalr	a5
    800021ee:	84aa                	mv	s1,a0
    800021f0:	e125                	bnez	a0,80002250 <lfs_cache_flush+0x88>
    800021f2:	02090163          	beqz	s2,80002214 <lfs_cache_flush+0x4c>
    800021f6:	0009b783          	ld	a5,0(s3)
    800021fa:	02c7a803          	lw	a6,44(a5)
    800021fe:	641c                	ld	a5,8(s0)
    80002200:	4058                	lw	a4,4(s0)
    80002202:	4014                	lw	a3,0(s0)
    80002204:	4601                	li	a2,0
    80002206:	85ca                	mv	a1,s2
    80002208:	854e                	mv	a0,s3
    8000220a:	93fff0ef          	jal	80001b48 <lfs_cache_cmp>
    8000220e:	02054863          	bltz	a0,8000223e <lfs_cache_flush+0x76>
    80002212:	c915                	beqz	a0,80002246 <lfs_cache_flush+0x7e>
    80002214:	0009b783          	ld	a5,0(s3)
    80002218:	02c7e603          	lwu	a2,44(a5)
    8000221c:	0ff00593          	li	a1,255
    80002220:	6408                	ld	a0,8(s0)
    80002222:	e85fe0ef          	jal	800010a6 <memset>
    80002226:	57fd                	li	a5,-1
    80002228:	c01c                	sw	a5,0(s0)
    8000222a:	6942                	ld	s2,16(sp)
    8000222c:	69a2                	ld	s3,8(sp)
    8000222e:	8526                	mv	a0,s1
    80002230:	70a2                	ld	ra,40(sp)
    80002232:	7402                	ld	s0,32(sp)
    80002234:	64e2                	ld	s1,24(sp)
    80002236:	6145                	add	sp,sp,48
    80002238:	8082                	ret
    8000223a:	4481                	li	s1,0
    8000223c:	bfcd                	j	8000222e <lfs_cache_flush+0x66>
    8000223e:	84aa                	mv	s1,a0
    80002240:	6942                	ld	s2,16(sp)
    80002242:	69a2                	ld	s3,8(sp)
    80002244:	b7ed                	j	8000222e <lfs_cache_flush+0x66>
    80002246:	fcc00493          	li	s1,-52
    8000224a:	6942                	ld	s2,16(sp)
    8000224c:	69a2                	ld	s3,8(sp)
    8000224e:	b7c5                	j	8000222e <lfs_cache_flush+0x66>
    80002250:	6942                	ld	s2,16(sp)
    80002252:	69a2                	ld	s3,8(sp)
    80002254:	bfe9                	j	8000222e <lfs_cache_flush+0x66>

0000000080002256 <lfs_cache_prog>:
    80002256:	715d                	add	sp,sp,-80
    80002258:	e486                	sd	ra,72(sp)
    8000225a:	e0a2                	sd	s0,64(sp)
    8000225c:	fc26                	sd	s1,56(sp)
    8000225e:	f84a                	sd	s2,48(sp)
    80002260:	f44e                	sd	s3,40(sp)
    80002262:	f052                	sd	s4,32(sp)
    80002264:	ec56                	sd	s5,24(sp)
    80002266:	e85a                	sd	s6,16(sp)
    80002268:	8a2a                	mv	s4,a0
    8000226a:	892e                	mv	s2,a1
    8000226c:	8b32                	mv	s6,a2
    8000226e:	89b6                	mv	s3,a3
    80002270:	84ba                	mv	s1,a4
    80002272:	8abe                	mv	s5,a5
    80002274:	8442                	mv	s0,a6
    80002276:	10080663          	beqz	a6,80002382 <lfs_cache_prog+0x12c>
    8000227a:	e45e                	sd	s7,8(sp)
    8000227c:	e062                	sd	s8,0(sp)
    8000227e:	a061                	j	80002306 <lfs_cache_prog+0xb0>
    80002280:	00492783          	lw	a5,4(s2)
    80002284:	08f4e563          	bltu	s1,a5,8000230e <lfs_cache_prog+0xb8>
    80002288:	000a3703          	ld	a4,0(s4)
    8000228c:	5758                	lw	a4,44(a4)
    8000228e:	9f3d                	addw	a4,a4,a5
    80002290:	0007069b          	sext.w	a3,a4
    80002294:	06d4fd63          	bgeu	s1,a3,8000230e <lfs_cache_prog+0xb8>
    80002298:	9f05                	subw	a4,a4,s1
    8000229a:	8bba                	mv	s7,a4
    8000229c:	2701                	sext.w	a4,a4
    8000229e:	00e47363          	bgeu	s0,a4,800022a4 <lfs_cache_prog+0x4e>
    800022a2:	8ba2                	mv	s7,s0
    800022a4:	020b9c13          	sll	s8,s7,0x20
    800022a8:	020c5c13          	srl	s8,s8,0x20
    800022ac:	40f487bb          	subw	a5,s1,a5
    800022b0:	1782                	sll	a5,a5,0x20
    800022b2:	9381                	srl	a5,a5,0x20
    800022b4:	00893503          	ld	a0,8(s2)
    800022b8:	8662                	mv	a2,s8
    800022ba:	85d6                	mv	a1,s5
    800022bc:	953e                	add	a0,a0,a5
    800022be:	132030ef          	jal	800053f0 <memcpy>
    800022c2:	9ae2                	add	s5,s5,s8
    800022c4:	009b87bb          	addw	a5,s7,s1
    800022c8:	0007849b          	sext.w	s1,a5
    800022cc:	4174043b          	subw	s0,s0,s7
    800022d0:	000a3703          	ld	a4,0(s4)
    800022d4:	5758                	lw	a4,44(a4)
    800022d6:	02e7f7bb          	remuw	a5,a5,a4
    800022da:	e7d1                	bnez	a5,80002366 <lfs_cache_prog+0x110>
    800022dc:	865a                	mv	a2,s6
    800022de:	85ca                	mv	a1,s2
    800022e0:	8552                	mv	a0,s4
    800022e2:	ee7ff0ef          	jal	800021c8 <lfs_cache_flush>
    800022e6:	c141                	beqz	a0,80002366 <lfs_cache_prog+0x110>
    800022e8:	6ba2                	ld	s7,8(sp)
    800022ea:	6c02                	ld	s8,0(sp)
    800022ec:	a049                	j	8000236e <lfs_cache_prog+0x118>
    800022ee:	01392023          	sw	s3,0(s2)
    800022f2:	000a3783          	ld	a5,0(s4)
    800022f6:	02c7a883          	lw	a7,44(a5)
    800022fa:	0314f8bb          	remuw	a7,s1,a7
    800022fe:	411488bb          	subw	a7,s1,a7
    80002302:	01192223          	sw	a7,4(s2)
    80002306:	00092783          	lw	a5,0(s2)
    8000230a:	f7378be3          	beq	a5,s3,80002280 <lfs_cache_prog+0x2a>
    8000230e:	000a3503          	ld	a0,0(s4)
    80002312:	02c52883          	lw	a7,44(a0)
    80002316:	0314f7bb          	remuw	a5,s1,a7
    8000231a:	fbf1                	bnez	a5,800022ee <lfs_cache_prog+0x98>
    8000231c:	fd1469e3          	bltu	s0,a7,800022ee <lfs_cache_prog+0x98>
    80002320:	031478bb          	remuw	a7,s0,a7
    80002324:	00088b9b          	sext.w	s7,a7
    80002328:	4114043b          	subw	s0,s0,a7
    8000232c:	00040c1b          	sext.w	s8,s0
    80002330:	691c                	ld	a5,16(a0)
    80002332:	8762                	mv	a4,s8
    80002334:	86d6                	mv	a3,s5
    80002336:	8626                	mv	a2,s1
    80002338:	85ce                	mv	a1,s3
    8000233a:	9782                	jalr	a5
    8000233c:	e931                	bnez	a0,80002390 <lfs_cache_prog+0x13a>
    8000233e:	000b0e63          	beqz	s6,8000235a <lfs_cache_prog+0x104>
    80002342:	8862                	mv	a6,s8
    80002344:	87d6                	mv	a5,s5
    80002346:	8726                	mv	a4,s1
    80002348:	86ce                	mv	a3,s3
    8000234a:	4601                	li	a2,0
    8000234c:	85da                	mv	a1,s6
    8000234e:	8552                	mv	a0,s4
    80002350:	ff8ff0ef          	jal	80001b48 <lfs_cache_cmp>
    80002354:	04054163          	bltz	a0,80002396 <lfs_cache_prog+0x140>
    80002358:	c51d                	beqz	a0,80002386 <lfs_cache_prog+0x130>
    8000235a:	02041793          	sll	a5,s0,0x20
    8000235e:	9381                	srl	a5,a5,0x20
    80002360:	9abe                	add	s5,s5,a5
    80002362:	9ca1                	addw	s1,s1,s0
    80002364:	845e                	mv	s0,s7
    80002366:	f045                	bnez	s0,80002306 <lfs_cache_prog+0xb0>
    80002368:	4501                	li	a0,0
    8000236a:	6ba2                	ld	s7,8(sp)
    8000236c:	6c02                	ld	s8,0(sp)
    8000236e:	60a6                	ld	ra,72(sp)
    80002370:	6406                	ld	s0,64(sp)
    80002372:	74e2                	ld	s1,56(sp)
    80002374:	7942                	ld	s2,48(sp)
    80002376:	79a2                	ld	s3,40(sp)
    80002378:	7a02                	ld	s4,32(sp)
    8000237a:	6ae2                	ld	s5,24(sp)
    8000237c:	6b42                	ld	s6,16(sp)
    8000237e:	6161                	add	sp,sp,80
    80002380:	8082                	ret
    80002382:	4501                	li	a0,0
    80002384:	b7ed                	j	8000236e <lfs_cache_prog+0x118>
    80002386:	fcc00513          	li	a0,-52
    8000238a:	6ba2                	ld	s7,8(sp)
    8000238c:	6c02                	ld	s8,0(sp)
    8000238e:	b7c5                	j	8000236e <lfs_cache_prog+0x118>
    80002390:	6ba2                	ld	s7,8(sp)
    80002392:	6c02                	ld	s8,0(sp)
    80002394:	bfe9                	j	8000236e <lfs_cache_prog+0x118>
    80002396:	6ba2                	ld	s7,8(sp)
    80002398:	6c02                	ld	s8,0(sp)
    8000239a:	bfd1                	j	8000236e <lfs_cache_prog+0x118>

000000008000239c <lfs_dir_open>:
    8000239c:	7139                	add	sp,sp,-64
    8000239e:	fc06                	sd	ra,56(sp)
    800023a0:	f822                	sd	s0,48(sp)
    800023a2:	f426                	sd	s1,40(sp)
    800023a4:	84aa                	mv	s1,a0
    800023a6:	842e                	mv	s0,a1
    800023a8:	e432                	sd	a2,8(sp)
    800023aa:	451c                	lw	a5,8(a0)
    800023ac:	c59c                	sw	a5,8(a1)
    800023ae:	455c                	lw	a5,12(a0)
    800023b0:	c5dc                	sw	a5,12(a1)
    800023b2:	0034                	add	a3,sp,8
    800023b4:	0810                	add	a2,sp,16
    800023b6:	805ff0ef          	jal	80001bba <lfs_dir_find>
    800023ba:	e905                	bnez	a0,800023ea <lfs_dir_open+0x4e>
    800023bc:	01414703          	lbu	a4,20(sp)
    800023c0:	02200793          	li	a5,34
    800023c4:	02f71863          	bne	a4,a5,800023f4 <lfs_dir_open+0x58>
    800023c8:	0830                	add	a2,sp,24
    800023ca:	85a2                	mv	a1,s0
    800023cc:	8526                	mv	a0,s1
    800023ce:	a94ff0ef          	jal	80001662 <lfs_dir_fetch>
    800023d2:	ed01                	bnez	a0,800023ea <lfs_dir_open+0x4e>
    800023d4:	441c                	lw	a5,8(s0)
    800023d6:	c85c                	sw	a5,20(s0)
    800023d8:	445c                	lw	a5,12(s0)
    800023da:	cc1c                	sw	a5,24(s0)
    800023dc:	47b9                	li	a5,14
    800023de:	cc5c                	sw	a5,28(s0)
    800023e0:	47c1                	li	a5,16
    800023e2:	c81c                	sw	a5,16(s0)
    800023e4:	6c9c                	ld	a5,24(s1)
    800023e6:	e01c                	sd	a5,0(s0)
    800023e8:	ec80                	sd	s0,24(s1)
    800023ea:	70e2                	ld	ra,56(sp)
    800023ec:	7442                	ld	s0,48(sp)
    800023ee:	74a2                	ld	s1,40(sp)
    800023f0:	6121                	add	sp,sp,64
    800023f2:	8082                	ret
    800023f4:	5531                	li	a0,-20
    800023f6:	bfd5                	j	800023ea <lfs_dir_open+0x4e>

00000000800023f8 <lfs_dir_close>:
    800023f8:	6d1c                	ld	a5,24(a0)
    800023fa:	cb91                	beqz	a5,8000240e <lfs_dir_close+0x16>
    800023fc:	00f58b63          	beq	a1,a5,80002412 <lfs_dir_close+0x1a>
    80002400:	873e                	mv	a4,a5
    80002402:	639c                	ld	a5,0(a5)
    80002404:	c789                	beqz	a5,8000240e <lfs_dir_close+0x16>
    80002406:	fef59de3          	bne	a1,a5,80002400 <lfs_dir_close+0x8>
    8000240a:	619c                	ld	a5,0(a1)
    8000240c:	e31c                	sd	a5,0(a4)
    8000240e:	4501                	li	a0,0
    80002410:	8082                	ret
    80002412:	01850713          	add	a4,a0,24
    80002416:	bfd5                	j	8000240a <lfs_dir_close+0x12>

0000000080002418 <lfs_dir_read>:
    80002418:	7139                	add	sp,sp,-64
    8000241a:	fc06                	sd	ra,56(sp)
    8000241c:	f822                	sd	s0,48(sp)
    8000241e:	f426                	sd	s1,40(sp)
    80002420:	f04a                	sd	s2,32(sp)
    80002422:	84aa                	mv	s1,a0
    80002424:	842e                	mv	s0,a1
    80002426:	8932                	mv	s2,a2
    80002428:	10800613          	li	a2,264
    8000242c:	4581                	li	a1,0
    8000242e:	854a                	mv	a0,s2
    80002430:	c77fe0ef          	jal	800010a6 <memset>
    80002434:	4c5c                	lw	a5,28(s0)
    80002436:	4739                	li	a4,14
    80002438:	08e78c63          	beq	a5,a4,800024d0 <lfs_dir_read+0xb8>
    8000243c:	473d                	li	a4,15
    8000243e:	0ae78663          	beq	a5,a4,800024ea <lfs_dir_read+0xd2>
    80002442:	ec4e                	sd	s3,24(sp)
    80002444:	e852                	sd	s4,16(sp)
    80002446:	49c5                	li	s3,17
    80002448:	02200a13          	li	s4,34
    8000244c:	860a                	mv	a2,sp
    8000244e:	85a2                	mv	a1,s0
    80002450:	8526                	mv	a0,s1
    80002452:	b80ff0ef          	jal	800017d2 <lfs_dir_next>
    80002456:	e955                	bnez	a0,8000250a <lfs_dir_read+0xf2>
    80002458:	00414783          	lbu	a5,4(sp)
    8000245c:	07f7f713          	and	a4,a5,127
    80002460:	01370463          	beq	a4,s3,80002468 <lfs_dir_read+0x50>
    80002464:	ff4714e3          	bne	a4,s4,8000244c <lfs_dir_read+0x34>
    80002468:	0187979b          	sllw	a5,a5,0x18
    8000246c:	4187d79b          	sraw	a5,a5,0x18
    80002470:	0007df63          	bgez	a5,8000248e <lfs_dir_read+0x76>
    80002474:	002c                	add	a1,sp,8
    80002476:	8526                	mv	a0,s1
    80002478:	c48ff0ef          	jal	800018c0 <lfs_moved>
    8000247c:	0a054563          	bltz	a0,80002526 <lfs_dir_read+0x10e>
    80002480:	f571                	bnez	a0,8000244c <lfs_dir_read+0x34>
    80002482:	00414783          	lbu	a5,4(sp)
    80002486:	07f7f793          	and	a5,a5,127
    8000248a:	00f10223          	sb	a5,4(sp)
    8000248e:	00414783          	lbu	a5,4(sp)
    80002492:	00f90023          	sb	a5,0(s2)
    80002496:	4745                	li	a4,17
    80002498:	06e78f63          	beq	a5,a4,80002516 <lfs_dir_read+0xfe>
    8000249c:	4782                	lw	a5,0(sp)
    8000249e:	2791                	addw	a5,a5,4
    800024a0:	00514703          	lbu	a4,5(sp)
    800024a4:	9fb9                	addw	a5,a5,a4
    800024a6:	00614603          	lbu	a2,6(sp)
    800024aa:	00714703          	lbu	a4,7(sp)
    800024ae:	00890693          	add	a3,s2,8
    800024b2:	9e3d                	addw	a2,a2,a5
    800024b4:	440c                	lw	a1,8(s0)
    800024b6:	8526                	mv	a0,s1
    800024b8:	98eff0ef          	jal	80001646 <lfs_bd_read>
    800024bc:	e925                	bnez	a0,8000252c <lfs_dir_read+0x114>
    800024be:	4505                	li	a0,1
    800024c0:	69e2                	ld	s3,24(sp)
    800024c2:	6a42                	ld	s4,16(sp)
    800024c4:	70e2                	ld	ra,56(sp)
    800024c6:	7442                	ld	s0,48(sp)
    800024c8:	74a2                	ld	s1,40(sp)
    800024ca:	7902                	ld	s2,32(sp)
    800024cc:	6121                	add	sp,sp,64
    800024ce:	8082                	ret
    800024d0:	02200793          	li	a5,34
    800024d4:	00f90023          	sb	a5,0(s2)
    800024d8:	02e00793          	li	a5,46
    800024dc:	00f91423          	sh	a5,8(s2)
    800024e0:	4c5c                	lw	a5,28(s0)
    800024e2:	2785                	addw	a5,a5,1
    800024e4:	cc5c                	sw	a5,28(s0)
    800024e6:	4505                	li	a0,1
    800024e8:	bff1                	j	800024c4 <lfs_dir_read+0xac>
    800024ea:	02200793          	li	a5,34
    800024ee:	00f90023          	sb	a5,0(s2)
    800024f2:	678d                	lui	a5,0x3
    800024f4:	e2e78793          	add	a5,a5,-466 # 2e2e <_start-0x7fffd1d2>
    800024f8:	00f91423          	sh	a5,8(s2)
    800024fc:	00090523          	sb	zero,10(s2)
    80002500:	4c5c                	lw	a5,28(s0)
    80002502:	2785                	addw	a5,a5,1
    80002504:	cc5c                	sw	a5,28(s0)
    80002506:	4505                	li	a0,1
    80002508:	bf75                	j	800024c4 <lfs_dir_read+0xac>
    8000250a:	57f9                	li	a5,-2
    8000250c:	00f50963          	beq	a0,a5,8000251e <lfs_dir_read+0x106>
    80002510:	69e2                	ld	s3,24(sp)
    80002512:	6a42                	ld	s4,16(sp)
    80002514:	bf45                	j	800024c4 <lfs_dir_read+0xac>
    80002516:	47b2                	lw	a5,12(sp)
    80002518:	00f92223          	sw	a5,4(s2)
    8000251c:	b741                	j	8000249c <lfs_dir_read+0x84>
    8000251e:	4501                	li	a0,0
    80002520:	69e2                	ld	s3,24(sp)
    80002522:	6a42                	ld	s4,16(sp)
    80002524:	b745                	j	800024c4 <lfs_dir_read+0xac>
    80002526:	69e2                	ld	s3,24(sp)
    80002528:	6a42                	ld	s4,16(sp)
    8000252a:	bf69                	j	800024c4 <lfs_dir_read+0xac>
    8000252c:	69e2                	ld	s3,24(sp)
    8000252e:	6a42                	ld	s4,16(sp)
    80002530:	bf51                	j	800024c4 <lfs_dir_read+0xac>

0000000080002532 <lfs_dir_tell>:
    80002532:	4dc8                	lw	a0,28(a1)
    80002534:	8082                	ret

0000000080002536 <lfs_dir_rewind>:
    80002536:	1141                	add	sp,sp,-16
    80002538:	e406                	sd	ra,8(sp)
    8000253a:	e022                	sd	s0,0(sp)
    8000253c:	842e                	mv	s0,a1
    8000253e:	01458613          	add	a2,a1,20
    80002542:	920ff0ef          	jal	80001662 <lfs_dir_fetch>
    80002546:	e909                	bnez	a0,80002558 <lfs_dir_rewind+0x22>
    80002548:	485c                	lw	a5,20(s0)
    8000254a:	c41c                	sw	a5,8(s0)
    8000254c:	4c1c                	lw	a5,24(s0)
    8000254e:	c45c                	sw	a5,12(s0)
    80002550:	47b9                	li	a5,14
    80002552:	cc5c                	sw	a5,28(s0)
    80002554:	47c1                	li	a5,16
    80002556:	c81c                	sw	a5,16(s0)
    80002558:	60a2                	ld	ra,8(sp)
    8000255a:	6402                	ld	s0,0(sp)
    8000255c:	0141                	add	sp,sp,16
    8000255e:	8082                	ret

0000000080002560 <lfs_dir_seek>:
    80002560:	7139                	add	sp,sp,-64
    80002562:	fc06                	sd	ra,56(sp)
    80002564:	f822                	sd	s0,48(sp)
    80002566:	f426                	sd	s1,40(sp)
    80002568:	f04a                	sd	s2,32(sp)
    8000256a:	e456                	sd	s5,8(sp)
    8000256c:	892a                	mv	s2,a0
    8000256e:	84ae                	mv	s1,a1
    80002570:	8432                	mv	s0,a2
    80002572:	fc5ff0ef          	jal	80002536 <lfs_dir_rewind>
    80002576:	8aaa                	mv	s5,a0
    80002578:	ed1d                	bnez	a0,800025b6 <lfs_dir_seek+0x56>
    8000257a:	ec4e                	sd	s3,24(sp)
    8000257c:	e852                	sd	s4,16(sp)
    8000257e:	ccc0                	sw	s0,28(s1)
    80002580:	800009b7          	lui	s3,0x80000
    80002584:	fff9c993          	not	s3,s3
    80002588:	02848a13          	add	s4,s1,40
    8000258c:	50d8                	lw	a4,36(s1)
    8000258e:	013777b3          	and	a5,a4,s3
    80002592:	0087ff63          	bgeu	a5,s0,800025b0 <lfs_dir_seek+0x50>
    80002596:	9c1d                	subw	s0,s0,a5
    80002598:	02075763          	bgez	a4,800025c6 <lfs_dir_seek+0x66>
    8000259c:	8652                	mv	a2,s4
    8000259e:	85a6                	mv	a1,s1
    800025a0:	854a                	mv	a0,s2
    800025a2:	8c0ff0ef          	jal	80001662 <lfs_dir_fetch>
    800025a6:	d17d                	beqz	a0,8000258c <lfs_dir_seek+0x2c>
    800025a8:	8aaa                	mv	s5,a0
    800025aa:	69e2                	ld	s3,24(sp)
    800025ac:	6a42                	ld	s4,16(sp)
    800025ae:	a021                	j	800025b6 <lfs_dir_seek+0x56>
    800025b0:	c880                	sw	s0,16(s1)
    800025b2:	69e2                	ld	s3,24(sp)
    800025b4:	6a42                	ld	s4,16(sp)
    800025b6:	8556                	mv	a0,s5
    800025b8:	70e2                	ld	ra,56(sp)
    800025ba:	7442                	ld	s0,48(sp)
    800025bc:	74a2                	ld	s1,40(sp)
    800025be:	7902                	ld	s2,32(sp)
    800025c0:	6aa2                	ld	s5,8(sp)
    800025c2:	6121                	add	sp,sp,64
    800025c4:	8082                	ret
    800025c6:	5aa9                	li	s5,-22
    800025c8:	69e2                	ld	s3,24(sp)
    800025ca:	6a42                	ld	s4,16(sp)
    800025cc:	b7ed                	j	800025b6 <lfs_dir_seek+0x56>

00000000800025ce <lfs_file_tell>:
    800025ce:	55c8                	lw	a0,44(a1)
    800025d0:	8082                	ret

00000000800025d2 <lfs_file_size>:
    800025d2:	559c                	lw	a5,40(a1)
    800025d4:	02e79713          	sll	a4,a5,0x2e
    800025d8:	00075b63          	bgez	a4,800025ee <lfs_file_size+0x1c>
    800025dc:	4d98                	lw	a4,24(a1)
    800025de:	55dc                	lw	a5,44(a1)
    800025e0:	853e                	mv	a0,a5
    800025e2:	2781                	sext.w	a5,a5
    800025e4:	00e7f363          	bgeu	a5,a4,800025ea <lfs_file_size+0x18>
    800025e8:	853a                	mv	a0,a4
    800025ea:	2501                	sext.w	a0,a0
    800025ec:	8082                	ret
    800025ee:	4d88                	lw	a0,24(a1)
    800025f0:	8082                	ret

00000000800025f2 <lfs_stat>:
    800025f2:	7159                	add	sp,sp,-112
    800025f4:	f486                	sd	ra,104(sp)
    800025f6:	f0a2                	sd	s0,96(sp)
    800025f8:	eca6                	sd	s1,88(sp)
    800025fa:	e8ca                	sd	s2,80(sp)
    800025fc:	892a                	mv	s2,a0
    800025fe:	e42e                	sd	a1,8(sp)
    80002600:	84b2                	mv	s1,a2
    80002602:	0034                	add	a3,sp,8
    80002604:	0810                	add	a2,sp,16
    80002606:	100c                	add	a1,sp,32
    80002608:	db2ff0ef          	jal	80001bba <lfs_dir_find>
    8000260c:	842a                	mv	s0,a0
    8000260e:	c901                	beqz	a0,8000261e <lfs_stat+0x2c>
    80002610:	8522                	mv	a0,s0
    80002612:	70a6                	ld	ra,104(sp)
    80002614:	7406                	ld	s0,96(sp)
    80002616:	64e6                	ld	s1,88(sp)
    80002618:	6946                	ld	s2,80(sp)
    8000261a:	6165                	add	sp,sp,112
    8000261c:	8082                	ret
    8000261e:	10800613          	li	a2,264
    80002622:	4581                	li	a1,0
    80002624:	8526                	mv	a0,s1
    80002626:	a81fe0ef          	jal	800010a6 <memset>
    8000262a:	01414783          	lbu	a5,20(sp)
    8000262e:	00f48023          	sb	a5,0(s1)
    80002632:	4745                	li	a4,17
    80002634:	04e78263          	beq	a5,a4,80002678 <lfs_stat+0x86>
    80002638:	47e2                	lw	a5,24(sp)
    8000263a:	00892703          	lw	a4,8(s2)
    8000263e:	04e78063          	beq	a5,a4,8000267e <lfs_stat+0x8c>
    80002642:	4672                	lw	a2,28(sp)
    80002644:	00c92683          	lw	a3,12(s2)
    80002648:	02d60b63          	beq	a2,a3,8000267e <lfs_stat+0x8c>
    8000264c:	02d78963          	beq	a5,a3,8000267e <lfs_stat+0x8c>
    80002650:	02c70763          	beq	a4,a2,8000267e <lfs_stat+0x8c>
    80002654:	47c2                	lw	a5,16(sp)
    80002656:	2791                	addw	a5,a5,4
    80002658:	01514703          	lbu	a4,21(sp)
    8000265c:	9fb9                	addw	a5,a5,a4
    8000265e:	01614603          	lbu	a2,22(sp)
    80002662:	01714703          	lbu	a4,23(sp)
    80002666:	00848693          	add	a3,s1,8
    8000266a:	9e3d                	addw	a2,a2,a5
    8000266c:	55a2                	lw	a1,40(sp)
    8000266e:	854a                	mv	a0,s2
    80002670:	fd7fe0ef          	jal	80001646 <lfs_bd_read>
    80002674:	842a                	mv	s0,a0
    80002676:	bf69                	j	80002610 <lfs_stat+0x1e>
    80002678:	47f2                	lw	a5,28(sp)
    8000267a:	c0dc                	sw	a5,4(s1)
    8000267c:	bf75                	j	80002638 <lfs_stat+0x46>
    8000267e:	02f00793          	li	a5,47
    80002682:	00f49423          	sh	a5,8(s1)
    80002686:	b769                	j	80002610 <lfs_stat+0x1e>

0000000080002688 <lfs_mount>:
    80002688:	7175                	add	sp,sp,-144
    8000268a:	e506                	sd	ra,136(sp)
    8000268c:	e122                	sd	s0,128(sp)
    8000268e:	fca6                	sd	s1,120(sp)
    80002690:	842a                	mv	s0,a0
    80002692:	8efff0ef          	jal	80001f80 <lfs_init>
    80002696:	84aa                	mv	s1,a0
    80002698:	c519                	beqz	a0,800026a6 <lfs_mount+0x1e>
    8000269a:	8526                	mv	a0,s1
    8000269c:	60aa                	ld	ra,136(sp)
    8000269e:	640a                	ld	s0,128(sp)
    800026a0:	74e6                	ld	s1,120(sp)
    800026a2:	6149                	add	sp,sp,144
    800026a4:	8082                	ret
    800026a6:	f8ca                	sd	s2,112(sp)
    800026a8:	04042023          	sw	zero,64(s0)
    800026ac:	04042223          	sw	zero,68(s0)
    800026b0:	04042423          	sw	zero,72(s0)
    800026b4:	601c                	ld	a5,0(s0)
    800026b6:	5bdc                	lw	a5,52(a5)
    800026b8:	c47c                	sw	a5,76(s0)
    800026ba:	cc82                	sw	zero,88(sp)
    800026bc:	4785                	li	a5,1
    800026be:	cebe                	sw	a5,92(sp)
    800026c0:	08b0                	add	a2,sp,88
    800026c2:	102c                	add	a1,sp,40
    800026c4:	8522                	mv	a0,s0
    800026c6:	f9dfe0ef          	jal	80001662 <lfs_dir_fetch>
    800026ca:	892a                	mv	s2,a0
    800026cc:	c519                	beqz	a0,800026da <lfs_mount+0x52>
    800026ce:	8522                	mv	a0,s0
    800026d0:	eb8ff0ef          	jal	80001d88 <lfs_deinit>
    800026d4:	84ca                	mv	s1,s2
    800026d6:	7946                	ld	s2,112(sp)
    800026d8:	b7c9                	j	8000269a <lfs_mount+0x12>
    800026da:	f4ce                	sd	s3,104(sp)
    800026dc:	f0d2                	sd	s4,96(sp)
    800026de:	02000713          	li	a4,32
    800026e2:	0054                	add	a3,sp,4
    800026e4:	4641                	li	a2,16
    800026e6:	55c2                	lw	a1,48(sp)
    800026e8:	8522                	mv	a0,s0
    800026ea:	f5dfe0ef          	jal	80001646 <lfs_bd_read>
    800026ee:	892a                	mv	s2,a0
    800026f0:	47a2                	lw	a5,8(sp)
    800026f2:	0087d693          	srl	a3,a5,0x8
    800026f6:	0ff6f693          	zext.b	a3,a3
    800026fa:	0086969b          	sllw	a3,a3,0x8
    800026fe:	0107d713          	srl	a4,a5,0x10
    80002702:	0ff77713          	zext.b	a4,a4
    80002706:	0107171b          	sllw	a4,a4,0x10
    8000270a:	8ed9                	or	a3,a3,a4
    8000270c:	0ff7f713          	zext.b	a4,a5
    80002710:	8ed9                	or	a3,a3,a4
    80002712:	0187d79b          	srlw	a5,a5,0x18
    80002716:	0187979b          	sllw	a5,a5,0x18
    8000271a:	8edd                	or	a3,a3,a5
    8000271c:	2681                	sext.w	a3,a3
    8000271e:	c436                	sw	a3,8(sp)
    80002720:	47b2                	lw	a5,12(sp)
    80002722:	0087d713          	srl	a4,a5,0x8
    80002726:	0ff77713          	zext.b	a4,a4
    8000272a:	0087171b          	sllw	a4,a4,0x8
    8000272e:	0107d613          	srl	a2,a5,0x10
    80002732:	0ff67613          	zext.b	a2,a2
    80002736:	0106161b          	sllw	a2,a2,0x10
    8000273a:	8f51                	or	a4,a4,a2
    8000273c:	0ff7f613          	zext.b	a2,a5
    80002740:	8f51                	or	a4,a4,a2
    80002742:	0187d79b          	srlw	a5,a5,0x18
    80002746:	0187979b          	sllw	a5,a5,0x18
    8000274a:	8f5d                	or	a4,a4,a5
    8000274c:	2701                	sext.w	a4,a4
    8000274e:	c63a                	sw	a4,12(sp)
    80002750:	4642                	lw	a2,16(sp)
    80002752:	00865793          	srl	a5,a2,0x8
    80002756:	0ff7f793          	zext.b	a5,a5
    8000275a:	0087979b          	sllw	a5,a5,0x8
    8000275e:	01065593          	srl	a1,a2,0x10
    80002762:	0ff5f593          	zext.b	a1,a1
    80002766:	0105959b          	sllw	a1,a1,0x10
    8000276a:	8fcd                	or	a5,a5,a1
    8000276c:	0ff67593          	zext.b	a1,a2
    80002770:	8fcd                	or	a5,a5,a1
    80002772:	0186561b          	srlw	a2,a2,0x18
    80002776:	0186161b          	sllw	a2,a2,0x18
    8000277a:	8fd1                	or	a5,a5,a2
    8000277c:	c83e                	sw	a5,16(sp)
    8000277e:	4652                	lw	a2,20(sp)
    80002780:	00865793          	srl	a5,a2,0x8
    80002784:	0ff7f793          	zext.b	a5,a5
    80002788:	0087979b          	sllw	a5,a5,0x8
    8000278c:	01065593          	srl	a1,a2,0x10
    80002790:	0ff5f593          	zext.b	a1,a1
    80002794:	0105959b          	sllw	a1,a1,0x10
    80002798:	8fcd                	or	a5,a5,a1
    8000279a:	0ff67593          	zext.b	a1,a2
    8000279e:	8fcd                	or	a5,a5,a1
    800027a0:	0186561b          	srlw	a2,a2,0x18
    800027a4:	0186161b          	sllw	a2,a2,0x18
    800027a8:	8fd1                	or	a5,a5,a2
    800027aa:	ca3e                	sw	a5,20(sp)
    800027ac:	4662                	lw	a2,24(sp)
    800027ae:	00865793          	srl	a5,a2,0x8
    800027b2:	0ff7f793          	zext.b	a5,a5
    800027b6:	0087979b          	sllw	a5,a5,0x8
    800027ba:	01065593          	srl	a1,a2,0x10
    800027be:	0ff5f593          	zext.b	a1,a1
    800027c2:	0105959b          	sllw	a1,a1,0x10
    800027c6:	8fcd                	or	a5,a5,a1
    800027c8:	0ff67593          	zext.b	a1,a2
    800027cc:	8fcd                	or	a5,a5,a1
    800027ce:	0186561b          	srlw	a2,a2,0x18
    800027d2:	0186161b          	sllw	a2,a2,0x18
    800027d6:	8fd1                	or	a5,a5,a2
    800027d8:	00078a1b          	sext.w	s4,a5
    800027dc:	cc52                	sw	s4,24(sp)
    800027de:	e921                	bnez	a0,8000282e <lfs_mount+0x1a6>
    800027e0:	c414                	sw	a3,8(s0)
    800027e2:	c458                	sw	a4,12(s0)
    800027e4:	4621                	li	a2,8
    800027e6:	00003597          	auipc	a1,0x3
    800027ea:	0f258593          	add	a1,a1,242 # 800058d8 <rtable.0+0x50>
    800027ee:	0868                	add	a0,sp,28
    800027f0:	3ad020ef          	jal	8000539c <memcmp>
    800027f4:	e505                	bnez	a0,8000281c <lfs_mount+0x194>
    800027f6:	010a579b          	srlw	a5,s4,0x10
    800027fa:	4705                	li	a4,1
    800027fc:	02e79563          	bne	a5,a4,80002826 <lfs_mount+0x19e>
    80002800:	1a42                	sll	s4,s4,0x30
    80002802:	030a5a13          	srl	s4,s4,0x30
    80002806:	4785                	li	a5,1
    80002808:	5929                	li	s2,-22
    8000280a:	0147f563          	bgeu	a5,s4,80002814 <lfs_mount+0x18c>
    8000280e:	79a6                	ld	s3,104(sp)
    80002810:	7a06                	ld	s4,96(sp)
    80002812:	bd75                	j	800026ce <lfs_mount+0x46>
    80002814:	7946                	ld	s2,112(sp)
    80002816:	79a6                	ld	s3,104(sp)
    80002818:	7a06                	ld	s4,96(sp)
    8000281a:	b541                	j	8000269a <lfs_mount+0x12>
    8000281c:	fcc00913          	li	s2,-52
    80002820:	79a6                	ld	s3,104(sp)
    80002822:	7a06                	ld	s4,96(sp)
    80002824:	b56d                	j	800026ce <lfs_mount+0x46>
    80002826:	5929                	li	s2,-22
    80002828:	79a6                	ld	s3,104(sp)
    8000282a:	7a06                	ld	s4,96(sp)
    8000282c:	b54d                	j	800026ce <lfs_mount+0x46>
    8000282e:	79a6                	ld	s3,104(sp)
    80002830:	7a06                	ld	s4,96(sp)
    80002832:	bd71                	j	800026ce <lfs_mount+0x46>

0000000080002834 <lfs_unmount>:
    80002834:	1141                	add	sp,sp,-16
    80002836:	e406                	sd	ra,8(sp)
    80002838:	d50ff0ef          	jal	80001d88 <lfs_deinit>
    8000283c:	4501                	li	a0,0
    8000283e:	60a2                	ld	ra,8(sp)
    80002840:	0141                	add	sp,sp,16
    80002842:	8082                	ret

0000000080002844 <lfs_traverse>:
    80002844:	7135                	add	sp,sp,-160
    80002846:	ed06                	sd	ra,152(sp)
    80002848:	ecde                	sd	s7,88(sp)
    8000284a:	4518                	lw	a4,8(a0)
    8000284c:	57fd                	li	a5,-1
    8000284e:	16f70d63          	beq	a4,a5,800029c8 <lfs_traverse+0x184>
    80002852:	e922                	sd	s0,144(sp)
    80002854:	fcce                	sd	s3,120(sp)
    80002856:	f8d2                	sd	s4,112(sp)
    80002858:	842a                	mv	s0,a0
    8000285a:	89ae                	mv	s3,a1
    8000285c:	8a32                	mv	s4,a2
    8000285e:	4558                	lw	a4,12(a0)
    80002860:	16f70a63          	beq	a4,a5,800029d4 <lfs_traverse+0x190>
    80002864:	e526                	sd	s1,136(sp)
    80002866:	e14a                	sd	s2,128(sp)
    80002868:	f4d6                	sd	s5,104(sp)
    8000286a:	f0da                	sd	s6,96(sp)
    8000286c:	c402                	sw	zero,8(sp)
    8000286e:	4785                	li	a5,1
    80002870:	c63e                	sw	a5,12(sp)
    80002872:	800004b7          	lui	s1,0x80000
    80002876:	fff4c493          	not	s1,s1
    8000287a:	4941                	li	s2,16
    8000287c:	45a2                	lw	a1,8(sp)
    8000287e:	8552                	mv	a0,s4
    80002880:	9982                	jalr	s3
    80002882:	8baa                	mv	s7,a0
    80002884:	16051f63          	bnez	a0,80002a02 <lfs_traverse+0x1be>
    80002888:	45b2                	lw	a1,12(sp)
    8000288a:	8552                	mv	a0,s4
    8000288c:	9982                	jalr	s3
    8000288e:	8baa                	mv	s7,a0
    80002890:	18051163          	bnez	a0,80002a12 <lfs_traverse+0x1ce>
    80002894:	0030                	add	a2,sp,8
    80002896:	100c                	add	a1,sp,32
    80002898:	8522                	mv	a0,s0
    8000289a:	dc9fe0ef          	jal	80001662 <lfs_dir_fetch>
    8000289e:	8aaa                	mv	s5,a0
    800028a0:	12051f63          	bnez	a0,800029de <lfs_traverse+0x19a>
    800028a4:	5b42                	lw	s6,48(sp)
    800028a6:	020b1793          	sll	a5,s6,0x20
    800028aa:	9381                	srl	a5,a5,0x20
    800028ac:	07b1                	add	a5,a5,12
    800028ae:	4716                	lw	a4,68(sp)
    800028b0:	8f65                	and	a4,a4,s1
    800028b2:	3771                	addw	a4,a4,-4
    800028b4:	1702                	sll	a4,a4,0x20
    800028b6:	9301                	srl	a4,a4,0x20
    800028b8:	06f76563          	bltu	a4,a5,80002922 <lfs_traverse+0xde>
    800028bc:	4731                	li	a4,12
    800028be:	0854                	add	a3,sp,20
    800028c0:	865a                	mv	a2,s6
    800028c2:	55a2                	lw	a1,40(sp)
    800028c4:	8522                	mv	a0,s0
    800028c6:	d81fe0ef          	jal	80001646 <lfs_bd_read>
    800028ca:	8baa                	mv	s7,a0
    800028cc:	0848                	add	a0,sp,20
    800028ce:	b5bfe0ef          	jal	80001428 <lfs_entry_fromle32>
    800028d2:	140b9863          	bnez	s7,80002a22 <lfs_traverse+0x1de>
    800028d6:	01514703          	lbu	a4,21(sp)
    800028da:	2711                	addw	a4,a4,4
    800028dc:	01614783          	lbu	a5,22(sp)
    800028e0:	9f3d                	addw	a4,a4,a5
    800028e2:	01714783          	lbu	a5,23(sp)
    800028e6:	9f3d                	addw	a4,a4,a5
    800028e8:	0167073b          	addw	a4,a4,s6
    800028ec:	d83a                	sw	a4,48(sp)
    800028ee:	01414783          	lbu	a5,20(sp)
    800028f2:	0707f793          	and	a5,a5,112
    800028f6:	fb2797e3          	bne	a5,s2,800028a4 <lfs_traverse+0x60>
    800028fa:	8852                	mv	a6,s4
    800028fc:	87ce                	mv	a5,s3
    800028fe:	4772                	lw	a4,28(sp)
    80002900:	46e2                	lw	a3,24(sp)
    80002902:	4601                	li	a2,0
    80002904:	02040593          	add	a1,s0,32
    80002908:	8522                	mv	a0,s0
    8000290a:	d74ff0ef          	jal	80001e7e <lfs_ctz_traverse>
    8000290e:	8baa                	mv	s7,a0
    80002910:	d951                	beqz	a0,800028a4 <lfs_traverse+0x60>
    80002912:	644a                	ld	s0,144(sp)
    80002914:	64aa                	ld	s1,136(sp)
    80002916:	690a                	ld	s2,128(sp)
    80002918:	79e6                	ld	s3,120(sp)
    8000291a:	7a46                	ld	s4,112(sp)
    8000291c:	7aa6                	ld	s5,104(sp)
    8000291e:	7b06                	ld	s6,96(sp)
    80002920:	a06d                	j	800029ca <lfs_traverse+0x186>
    80002922:	47a6                	lw	a5,72(sp)
    80002924:	c43e                	sw	a5,8(sp)
    80002926:	4736                	lw	a4,76(sp)
    80002928:	c63a                	sw	a4,12(sp)
    8000292a:	56fd                	li	a3,-1
    8000292c:	00d78563          	beq	a5,a3,80002936 <lfs_traverse+0xf2>
    80002930:	57fd                	li	a5,-1
    80002932:	f4f715e3          	bne	a4,a5,8000287c <lfs_traverse+0x38>
    80002936:	6804                	ld	s1,16(s0)
    80002938:	ccc5                	beqz	s1,800029f0 <lfs_traverse+0x1ac>
    8000293a:	e8e2                	sd	s8,80(sp)
    8000293c:	6941                	lui	s2,0x10
    8000293e:	02040c13          	add	s8,s0,32
    80002942:	00020b37          	lui	s6,0x20
    80002946:	a805                	j	80002976 <lfs_traverse+0x132>
    80002948:	8852                	mv	a6,s4
    8000294a:	87ce                	mv	a5,s3
    8000294c:	4c98                	lw	a4,24(s1)
    8000294e:	48d4                	lw	a3,20(s1)
    80002950:	03848613          	add	a2,s1,56 # ffffffff80000038 <_sp+0xfffffffef1000038>
    80002954:	85e2                	mv	a1,s8
    80002956:	8522                	mv	a0,s0
    80002958:	d26ff0ef          	jal	80001e7e <lfs_ctz_traverse>
    8000295c:	8baa                	mv	s7,a0
    8000295e:	c10d                	beqz	a0,80002980 <lfs_traverse+0x13c>
    80002960:	644a                	ld	s0,144(sp)
    80002962:	64aa                	ld	s1,136(sp)
    80002964:	690a                	ld	s2,128(sp)
    80002966:	79e6                	ld	s3,120(sp)
    80002968:	7a46                	ld	s4,112(sp)
    8000296a:	7aa6                	ld	s5,104(sp)
    8000296c:	7b06                	ld	s6,96(sp)
    8000296e:	6c46                	ld	s8,80(sp)
    80002970:	a8a9                	j	800029ca <lfs_traverse+0x186>
    80002972:	6084                	ld	s1,0(s1)
    80002974:	c0a1                	beqz	s1,800029b4 <lfs_traverse+0x170>
    80002976:	549c                	lw	a5,40(s1)
    80002978:	0127f7b3          	and	a5,a5,s2
    8000297c:	2781                	sext.w	a5,a5
    8000297e:	f7e9                	bnez	a5,80002948 <lfs_traverse+0x104>
    80002980:	549c                	lw	a5,40(s1)
    80002982:	0167f7b3          	and	a5,a5,s6
    80002986:	2781                	sext.w	a5,a5
    80002988:	d7ed                	beqz	a5,80002972 <lfs_traverse+0x12e>
    8000298a:	8852                	mv	a6,s4
    8000298c:	87ce                	mv	a5,s3
    8000298e:	54d8                	lw	a4,44(s1)
    80002990:	5894                	lw	a3,48(s1)
    80002992:	03848613          	add	a2,s1,56
    80002996:	85e2                	mv	a1,s8
    80002998:	8522                	mv	a0,s0
    8000299a:	ce4ff0ef          	jal	80001e7e <lfs_ctz_traverse>
    8000299e:	8baa                	mv	s7,a0
    800029a0:	d969                	beqz	a0,80002972 <lfs_traverse+0x12e>
    800029a2:	644a                	ld	s0,144(sp)
    800029a4:	64aa                	ld	s1,136(sp)
    800029a6:	690a                	ld	s2,128(sp)
    800029a8:	79e6                	ld	s3,120(sp)
    800029aa:	7a46                	ld	s4,112(sp)
    800029ac:	7aa6                	ld	s5,104(sp)
    800029ae:	7b06                	ld	s6,96(sp)
    800029b0:	6c46                	ld	s8,80(sp)
    800029b2:	a821                	j	800029ca <lfs_traverse+0x186>
    800029b4:	8bd6                	mv	s7,s5
    800029b6:	644a                	ld	s0,144(sp)
    800029b8:	64aa                	ld	s1,136(sp)
    800029ba:	690a                	ld	s2,128(sp)
    800029bc:	79e6                	ld	s3,120(sp)
    800029be:	7a46                	ld	s4,112(sp)
    800029c0:	7aa6                	ld	s5,104(sp)
    800029c2:	7b06                	ld	s6,96(sp)
    800029c4:	6c46                	ld	s8,80(sp)
    800029c6:	a011                	j	800029ca <lfs_traverse+0x186>
    800029c8:	4b81                	li	s7,0
    800029ca:	855e                	mv	a0,s7
    800029cc:	60ea                	ld	ra,152(sp)
    800029ce:	6be6                	ld	s7,88(sp)
    800029d0:	610d                	add	sp,sp,160
    800029d2:	8082                	ret
    800029d4:	4b81                	li	s7,0
    800029d6:	644a                	ld	s0,144(sp)
    800029d8:	79e6                	ld	s3,120(sp)
    800029da:	7a46                	ld	s4,112(sp)
    800029dc:	b7fd                	j	800029ca <lfs_traverse+0x186>
    800029de:	8baa                	mv	s7,a0
    800029e0:	644a                	ld	s0,144(sp)
    800029e2:	64aa                	ld	s1,136(sp)
    800029e4:	690a                	ld	s2,128(sp)
    800029e6:	79e6                	ld	s3,120(sp)
    800029e8:	7a46                	ld	s4,112(sp)
    800029ea:	7aa6                	ld	s5,104(sp)
    800029ec:	7b06                	ld	s6,96(sp)
    800029ee:	bff1                	j	800029ca <lfs_traverse+0x186>
    800029f0:	8bd6                	mv	s7,s5
    800029f2:	644a                	ld	s0,144(sp)
    800029f4:	64aa                	ld	s1,136(sp)
    800029f6:	690a                	ld	s2,128(sp)
    800029f8:	79e6                	ld	s3,120(sp)
    800029fa:	7a46                	ld	s4,112(sp)
    800029fc:	7aa6                	ld	s5,104(sp)
    800029fe:	7b06                	ld	s6,96(sp)
    80002a00:	b7e9                	j	800029ca <lfs_traverse+0x186>
    80002a02:	644a                	ld	s0,144(sp)
    80002a04:	64aa                	ld	s1,136(sp)
    80002a06:	690a                	ld	s2,128(sp)
    80002a08:	79e6                	ld	s3,120(sp)
    80002a0a:	7a46                	ld	s4,112(sp)
    80002a0c:	7aa6                	ld	s5,104(sp)
    80002a0e:	7b06                	ld	s6,96(sp)
    80002a10:	bf6d                	j	800029ca <lfs_traverse+0x186>
    80002a12:	644a                	ld	s0,144(sp)
    80002a14:	64aa                	ld	s1,136(sp)
    80002a16:	690a                	ld	s2,128(sp)
    80002a18:	79e6                	ld	s3,120(sp)
    80002a1a:	7a46                	ld	s4,112(sp)
    80002a1c:	7aa6                	ld	s5,104(sp)
    80002a1e:	7b06                	ld	s6,96(sp)
    80002a20:	b76d                	j	800029ca <lfs_traverse+0x186>
    80002a22:	644a                	ld	s0,144(sp)
    80002a24:	64aa                	ld	s1,136(sp)
    80002a26:	690a                	ld	s2,128(sp)
    80002a28:	79e6                	ld	s3,120(sp)
    80002a2a:	7a46                	ld	s4,112(sp)
    80002a2c:	7aa6                	ld	s5,104(sp)
    80002a2e:	7b06                	ld	s6,96(sp)
    80002a30:	bf69                	j	800029ca <lfs_traverse+0x186>

0000000080002a32 <lfs_alloc>:
    80002a32:	1101                	add	sp,sp,-32
    80002a34:	ec06                	sd	ra,24(sp)
    80002a36:	e822                	sd	s0,16(sp)
    80002a38:	e426                	sd	s1,8(sp)
    80002a3a:	e04a                	sd	s2,0(sp)
    80002a3c:	842a                	mv	s0,a0
    80002a3e:	892e                	mv	s2,a1
    80002a40:	4485                	li	s1,1
    80002a42:	4070                	lw	a2,68(s0)
    80002a44:	4438                	lw	a4,72(s0)
    80002a46:	06c70e63          	beq	a4,a2,80002ac2 <lfs_alloc+0x90>
    80002a4a:	0017079b          	addw	a5,a4,1
    80002a4e:	c43c                	sw	a5,72(s0)
    80002a50:	447c                	lw	a5,76(s0)
    80002a52:	37fd                	addw	a5,a5,-1
    80002a54:	c47c                	sw	a5,76(s0)
    80002a56:	0057579b          	srlw	a5,a4,0x5
    80002a5a:	6834                	ld	a3,80(s0)
    80002a5c:	078a                	sll	a5,a5,0x2
    80002a5e:	97b6                	add	a5,a5,a3
    80002a60:	00e496bb          	sllw	a3,s1,a4
    80002a64:	439c                	lw	a5,0(a5)
    80002a66:	8ff5                	and	a5,a5,a3
    80002a68:	2781                	sext.w	a5,a5
    80002a6a:	ffe9                	bnez	a5,80002a44 <lfs_alloc+0x12>
    80002a6c:	403c                	lw	a5,64(s0)
    80002a6e:	9fb9                	addw	a5,a5,a4
    80002a70:	6018                	ld	a4,0(s0)
    80002a72:	5b58                	lw	a4,52(a4)
    80002a74:	02e7f7bb          	remuw	a5,a5,a4
    80002a78:	00f92023          	sw	a5,0(s2) # 10000 <_start-0x7fff0000>
    80002a7c:	4438                	lw	a4,72(s0)
    80002a7e:	4070                	lw	a2,68(s0)
    80002a80:	08c70463          	beq	a4,a2,80002b08 <lfs_alloc+0xd6>
    80002a84:	6828                	ld	a0,80(s0)
    80002a86:	4585                	li	a1,1
    80002a88:	0057579b          	srlw	a5,a4,0x5
    80002a8c:	078a                	sll	a5,a5,0x2
    80002a8e:	97aa                	add	a5,a5,a0
    80002a90:	00e596bb          	sllw	a3,a1,a4
    80002a94:	439c                	lw	a5,0(a5)
    80002a96:	8ff5                	and	a5,a5,a3
    80002a98:	2781                	sext.w	a5,a5
    80002a9a:	cf89                	beqz	a5,80002ab4 <lfs_alloc+0x82>
    80002a9c:	0017079b          	addw	a5,a4,1
    80002aa0:	0007871b          	sext.w	a4,a5
    80002aa4:	c43c                	sw	a5,72(s0)
    80002aa6:	447c                	lw	a5,76(s0)
    80002aa8:	37fd                	addw	a5,a5,-1
    80002aaa:	c47c                	sw	a5,76(s0)
    80002aac:	fcc71ee3          	bne	a4,a2,80002a88 <lfs_alloc+0x56>
    80002ab0:	4501                	li	a0,0
    80002ab2:	a011                	j	80002ab6 <lfs_alloc+0x84>
    80002ab4:	4501                	li	a0,0
    80002ab6:	60e2                	ld	ra,24(sp)
    80002ab8:	6442                	ld	s0,16(sp)
    80002aba:	64a2                	ld	s1,8(sp)
    80002abc:	6902                	ld	s2,0(sp)
    80002abe:	6105                	add	sp,sp,32
    80002ac0:	8082                	ret
    80002ac2:	4474                	lw	a3,76(s0)
    80002ac4:	c6a1                	beqz	a3,80002b0c <lfs_alloc+0xda>
    80002ac6:	6018                	ld	a4,0(s0)
    80002ac8:	403c                	lw	a5,64(s0)
    80002aca:	9fb1                	addw	a5,a5,a2
    80002acc:	5b50                	lw	a2,52(a4)
    80002ace:	02c7f7bb          	remuw	a5,a5,a2
    80002ad2:	c03c                	sw	a5,64(s0)
    80002ad4:	5f1c                	lw	a5,56(a4)
    80002ad6:	863e                	mv	a2,a5
    80002ad8:	2781                	sext.w	a5,a5
    80002ada:	00f6f363          	bgeu	a3,a5,80002ae0 <lfs_alloc+0xae>
    80002ade:	8636                	mv	a2,a3
    80002ae0:	c070                	sw	a2,68(s0)
    80002ae2:	04042423          	sw	zero,72(s0)
    80002ae6:	5f10                	lw	a2,56(a4)
    80002ae8:	0036561b          	srlw	a2,a2,0x3
    80002aec:	4581                	li	a1,0
    80002aee:	6828                	ld	a0,80(s0)
    80002af0:	db6fe0ef          	jal	800010a6 <memset>
    80002af4:	8622                	mv	a2,s0
    80002af6:	ffffe597          	auipc	a1,0xffffe
    80002afa:	78a58593          	add	a1,a1,1930 # 80001280 <lfs_alloc_lookahead>
    80002afe:	8522                	mv	a0,s0
    80002b00:	d45ff0ef          	jal	80002844 <lfs_traverse>
    80002b04:	dd1d                	beqz	a0,80002a42 <lfs_alloc+0x10>
    80002b06:	bf45                	j	80002ab6 <lfs_alloc+0x84>
    80002b08:	4501                	li	a0,0
    80002b0a:	b775                	j	80002ab6 <lfs_alloc+0x84>
    80002b0c:	5511                	li	a0,-28
    80002b0e:	b765                	j	80002ab6 <lfs_alloc+0x84>

0000000080002b10 <lfs_dir_alloc>:
    80002b10:	1101                	add	sp,sp,-32
    80002b12:	ec06                	sd	ra,24(sp)
    80002b14:	e822                	sd	s0,16(sp)
    80002b16:	e426                	sd	s1,8(sp)
    80002b18:	e04a                	sd	s2,0(sp)
    80002b1a:	892a                	mv	s2,a0
    80002b1c:	842e                	mv	s0,a1
    80002b1e:	05a1                	add	a1,a1,8
    80002b20:	f13ff0ef          	jal	80002a32 <lfs_alloc>
    80002b24:	84aa                	mv	s1,a0
    80002b26:	e925                	bnez	a0,80002b96 <lfs_dir_alloc+0x86>
    80002b28:	00c40593          	add	a1,s0,12
    80002b2c:	854a                	mv	a0,s2
    80002b2e:	f05ff0ef          	jal	80002a32 <lfs_alloc>
    80002b32:	84aa                	mv	s1,a0
    80002b34:	e12d                	bnez	a0,80002b96 <lfs_dir_alloc+0x86>
    80002b36:	4711                	li	a4,4
    80002b38:	02040693          	add	a3,s0,32
    80002b3c:	4601                	li	a2,0
    80002b3e:	440c                	lw	a1,8(s0)
    80002b40:	854a                	mv	a0,s2
    80002b42:	b05fe0ef          	jal	80001646 <lfs_bd_read>
    80002b46:	c519                	beqz	a0,80002b54 <lfs_dir_alloc+0x44>
    80002b48:	fcc00793          	li	a5,-52
    80002b4c:	02f50b63          	beq	a0,a5,80002b82 <lfs_dir_alloc+0x72>
    80002b50:	84aa                	mv	s1,a0
    80002b52:	a091                	j	80002b96 <lfs_dir_alloc+0x86>
    80002b54:	5018                	lw	a4,32(s0)
    80002b56:	00875793          	srl	a5,a4,0x8
    80002b5a:	0ff7f793          	zext.b	a5,a5
    80002b5e:	0087979b          	sllw	a5,a5,0x8
    80002b62:	01075693          	srl	a3,a4,0x10
    80002b66:	0ff6f693          	zext.b	a3,a3
    80002b6a:	0106969b          	sllw	a3,a3,0x10
    80002b6e:	8fd5                	or	a5,a5,a3
    80002b70:	0ff77693          	zext.b	a3,a4
    80002b74:	8fd5                	or	a5,a5,a3
    80002b76:	0187571b          	srlw	a4,a4,0x18
    80002b7a:	0187171b          	sllw	a4,a4,0x18
    80002b7e:	8fd9                	or	a5,a5,a4
    80002b80:	d01c                	sw	a5,32(s0)
    80002b82:	501c                	lw	a5,32(s0)
    80002b84:	2785                	addw	a5,a5,1
    80002b86:	d01c                	sw	a5,32(s0)
    80002b88:	47d1                	li	a5,20
    80002b8a:	d05c                	sw	a5,36(s0)
    80002b8c:	57fd                	li	a5,-1
    80002b8e:	d41c                	sw	a5,40(s0)
    80002b90:	d45c                	sw	a5,44(s0)
    80002b92:	47c1                	li	a5,16
    80002b94:	c81c                	sw	a5,16(s0)
    80002b96:	8526                	mv	a0,s1
    80002b98:	60e2                	ld	ra,24(sp)
    80002b9a:	6442                	ld	s0,16(sp)
    80002b9c:	64a2                	ld	s1,8(sp)
    80002b9e:	6902                	ld	s2,0(sp)
    80002ba0:	6105                	add	sp,sp,32
    80002ba2:	8082                	ret

0000000080002ba4 <lfs_file_relocate>:
    80002ba4:	7159                	add	sp,sp,-112
    80002ba6:	f486                	sd	ra,104(sp)
    80002ba8:	f0a2                	sd	s0,96(sp)
    80002baa:	eca6                	sd	s1,88(sp)
    80002bac:	e8ca                	sd	s2,80(sp)
    80002bae:	e4ce                	sd	s3,72(sp)
    80002bb0:	e0d2                	sd	s4,64(sp)
    80002bb2:	fc56                	sd	s5,56(sp)
    80002bb4:	f85a                	sd	s6,48(sp)
    80002bb6:	f45e                	sd	s7,40(sp)
    80002bb8:	f062                	sd	s8,32(sp)
    80002bba:	ec66                	sd	s9,24(sp)
    80002bbc:	892a                	mv	s2,a0
    80002bbe:	89ae                	mv	s3,a1
    80002bc0:	4c81                	li	s9,0
    80002bc2:	02050a13          	add	s4,a0,32
    80002bc6:	03858b13          	add	s6,a1,56
    80002bca:	03050b93          	add	s7,a0,48
    80002bce:	fcc00c13          	li	s8,-52
    80002bd2:	006c                	add	a1,sp,12
    80002bd4:	854a                	mv	a0,s2
    80002bd6:	e5dff0ef          	jal	80002a32 <lfs_alloc>
    80002bda:	84aa                	mv	s1,a0
    80002bdc:	e155                	bnez	a0,80002c80 <lfs_file_relocate+0xdc>
    80002bde:	4ab2                	lw	s5,12(sp)
    80002be0:	85d6                	mv	a1,s5
    80002be2:	854a                	mv	a0,s2
    80002be4:	e8cfe0ef          	jal	80001270 <lfs_bd_erase>
    80002be8:	84aa                	mv	s1,a0
    80002bea:	c911                	beqz	a0,80002bfe <lfs_file_relocate+0x5a>
    80002bec:	ff8503e3          	beq	a0,s8,80002bd2 <lfs_file_relocate+0x2e>
    80002bf0:	a841                	j	80002c80 <lfs_file_relocate+0xdc>
    80002bf2:	fcc00793          	li	a5,-52
    80002bf6:	fcf50ee3          	beq	a0,a5,80002bd2 <lfs_file_relocate+0x2e>
    80002bfa:	84aa                	mv	s1,a0
    80002bfc:	a051                	j	80002c80 <lfs_file_relocate+0xdc>
    80002bfe:	0349a783          	lw	a5,52(s3) # ffffffff80000034 <_sp+0xfffffffef1000034>
    80002c02:	cf95                	beqz	a5,80002c3e <lfs_file_relocate+0x9a>
    80002c04:	8466                	mv	s0,s9
    80002c06:	4805                	li	a6,1
    80002c08:	00b10793          	add	a5,sp,11
    80002c0c:	8722                	mv	a4,s0
    80002c0e:	0309a683          	lw	a3,48(s3)
    80002c12:	865a                	mv	a2,s6
    80002c14:	85d2                	mv	a1,s4
    80002c16:	854a                	mv	a0,s2
    80002c18:	8cdfe0ef          	jal	800014e4 <lfs_cache_read>
    80002c1c:	fd79                	bnez	a0,80002bfa <lfs_file_relocate+0x56>
    80002c1e:	4805                	li	a6,1
    80002c20:	00b10793          	add	a5,sp,11
    80002c24:	8722                	mv	a4,s0
    80002c26:	86d6                	mv	a3,s5
    80002c28:	8652                	mv	a2,s4
    80002c2a:	85de                	mv	a1,s7
    80002c2c:	854a                	mv	a0,s2
    80002c2e:	e28ff0ef          	jal	80002256 <lfs_cache_prog>
    80002c32:	f161                	bnez	a0,80002bf2 <lfs_file_relocate+0x4e>
    80002c34:	2405                	addw	s0,s0,1
    80002c36:	0349a783          	lw	a5,52(s3)
    80002c3a:	fcf466e3          	bltu	s0,a5,80002c06 <lfs_file_relocate+0x62>
    80002c3e:	00093783          	ld	a5,0(s2)
    80002c42:	02c7e603          	lwu	a2,44(a5)
    80002c46:	03893583          	ld	a1,56(s2)
    80002c4a:	0409b503          	ld	a0,64(s3)
    80002c4e:	7a2020ef          	jal	800053f0 <memcpy>
    80002c52:	03092783          	lw	a5,48(s2)
    80002c56:	02f9ac23          	sw	a5,56(s3)
    80002c5a:	03492783          	lw	a5,52(s2)
    80002c5e:	02f9ae23          	sw	a5,60(s3)
    80002c62:	00093783          	ld	a5,0(s2)
    80002c66:	02c7e603          	lwu	a2,44(a5)
    80002c6a:	0ff00593          	li	a1,255
    80002c6e:	03893503          	ld	a0,56(s2)
    80002c72:	c34fe0ef          	jal	800010a6 <memset>
    80002c76:	57fd                	li	a5,-1
    80002c78:	02f92823          	sw	a5,48(s2)
    80002c7c:	0359a823          	sw	s5,48(s3)
    80002c80:	8526                	mv	a0,s1
    80002c82:	70a6                	ld	ra,104(sp)
    80002c84:	7406                	ld	s0,96(sp)
    80002c86:	64e6                	ld	s1,88(sp)
    80002c88:	6946                	ld	s2,80(sp)
    80002c8a:	69a6                	ld	s3,72(sp)
    80002c8c:	6a06                	ld	s4,64(sp)
    80002c8e:	7ae2                	ld	s5,56(sp)
    80002c90:	7b42                	ld	s6,48(sp)
    80002c92:	7ba2                	ld	s7,40(sp)
    80002c94:	7c02                	ld	s8,32(sp)
    80002c96:	6ce2                	ld	s9,24(sp)
    80002c98:	6165                	add	sp,sp,112
    80002c9a:	8082                	ret

0000000080002c9c <lfs_file_write>:
    80002c9c:	7131                	add	sp,sp,-192
    80002c9e:	fd06                	sd	ra,184(sp)
    80002ca0:	fcde                	sd	s7,120(sp)
    80002ca2:	e832                	sd	a2,16(sp)
    80002ca4:	8bb6                	mv	s7,a3
    80002ca6:	559c                	lw	a5,40(a1)
    80002ca8:	0037f693          	and	a3,a5,3
    80002cac:	4705                	li	a4,1
    80002cae:	40e68563          	beq	a3,a4,800030b8 <lfs_file_write+0x41c>
    80002cb2:	f922                	sd	s0,176(sp)
    80002cb4:	f526                	sd	s1,168(sp)
    80002cb6:	842a                	mv	s0,a0
    80002cb8:	84ae                	mv	s1,a1
    80002cba:	02d79713          	sll	a4,a5,0x2d
    80002cbe:	04074b63          	bltz	a4,80002d14 <lfs_file_write+0x78>
    80002cc2:	f14a                	sd	s2,160(sp)
    80002cc4:	549c                	lw	a5,40(s1)
    80002cc6:	03479713          	sll	a4,a5,0x34
    80002cca:	00075763          	bgez	a4,80002cd8 <lfs_file_write+0x3c>
    80002cce:	4c98                	lw	a4,24(s1)
    80002cd0:	54d4                	lw	a3,44(s1)
    80002cd2:	00e6f363          	bgeu	a3,a4,80002cd8 <lfs_file_write+0x3c>
    80002cd6:	d4d8                	sw	a4,44(s1)
    80002cd8:	02c4a903          	lw	s2,44(s1)
    80002cdc:	0179073b          	addw	a4,s2,s7
    80002ce0:	3c074e63          	bltz	a4,800030bc <lfs_file_write+0x420>
    80002ce4:	02e79713          	sll	a4,a5,0x2e
    80002ce8:	38074563          	bltz	a4,80003072 <lfs_file_write+0x3d6>
    80002cec:	4c9c                	lw	a5,24(s1)
    80002cee:	3d27f363          	bgeu	a5,s2,800030b4 <lfs_file_write+0x418>
    80002cf2:	d4dc                	sw	a5,44(s1)
    80002cf4:	040107a3          	sb	zero,79(sp)
    80002cf8:	4685                	li	a3,1
    80002cfa:	04f10613          	add	a2,sp,79
    80002cfe:	85a6                	mv	a1,s1
    80002d00:	8522                	mv	a0,s0
    80002d02:	f9bff0ef          	jal	80002c9c <lfs_file_write>
    80002d06:	3c054063          	bltz	a0,800030c6 <lfs_file_write+0x42a>
    80002d0a:	54dc                	lw	a5,44(s1)
    80002d0c:	ff27e4e3          	bltu	a5,s2,80002cf4 <lfs_file_write+0x58>
    80002d10:	f8e2                	sd	s8,112(sp)
    80002d12:	a68d                	j	80003074 <lfs_file_write+0x3d8>
    80002d14:	3ba000ef          	jal	800030ce <lfs_file_flush>
    80002d18:	d54d                	beqz	a0,80002cc2 <lfs_file_write+0x26>
    80002d1a:	744a                	ld	s0,176(sp)
    80002d1c:	74aa                	ld	s1,168(sp)
    80002d1e:	a611                	j	80003022 <lfs_file_write+0x386>
    80002d20:	54dc                	lw	a5,44(s1)
    80002d22:	e79d                	bnez	a5,80002d50 <lfs_file_write+0xb4>
    80002d24:	ed4e                	sd	s3,152(sp)
    80002d26:	e952                	sd	s4,144(sp)
    80002d28:	e15a                	sd	s6,128(sp)
    80002d2a:	f4e6                	sd	s9,104(sp)
    80002d2c:	ecee                	sd	s11,88(sp)
    80002d2e:	601c                	ld	a5,0(s0)
    80002d30:	5bdc                	lw	a5,52(a5)
    80002d32:	c47c                	sw	a5,76(s0)
    80002d34:	02040793          	add	a5,s0,32
    80002d38:	e43e                	sd	a5,8(sp)
    80002d3a:	03848793          	add	a5,s1,56
    80002d3e:	f43e                	sd	a5,40(sp)
    80002d40:	54dc                	lw	a5,44(s1)
    80002d42:	5898                	lw	a4,48(s1)
    80002d44:	c0ba                	sw	a4,64(sp)
    80002d46:	c2be                	sw	a5,68(sp)
    80002d48:	fcc00d93          	li	s11,-52
    80002d4c:	5cfd                	li	s9,-1
    80002d4e:	aa05                	j	80002e7e <lfs_file_write+0x1e2>
    80002d50:	03448893          	add	a7,s1,52
    80002d54:	03048813          	add	a6,s1,48
    80002d58:	37fd                	addw	a5,a5,-1
    80002d5a:	4c98                	lw	a4,24(s1)
    80002d5c:	48d4                	lw	a3,20(s1)
    80002d5e:	4601                	li	a2,0
    80002d60:	03848593          	add	a1,s1,56
    80002d64:	8522                	mv	a0,s0
    80002d66:	aa6ff0ef          	jal	8000200c <lfs_ctz_find>
    80002d6a:	e10d                	bnez	a0,80002d8c <lfs_file_write+0xf0>
    80002d6c:	ed4e                	sd	s3,152(sp)
    80002d6e:	e952                	sd	s4,144(sp)
    80002d70:	e15a                	sd	s6,128(sp)
    80002d72:	f4e6                	sd	s9,104(sp)
    80002d74:	ecee                	sd	s11,88(sp)
    80002d76:	601c                	ld	a5,0(s0)
    80002d78:	02c7e603          	lwu	a2,44(a5)
    80002d7c:	0ff00593          	li	a1,255
    80002d80:	60a8                	ld	a0,64(s1)
    80002d82:	b24fe0ef          	jal	800010a6 <memset>
    80002d86:	57fd                	li	a5,-1
    80002d88:	dc9c                	sw	a5,56(s1)
    80002d8a:	b755                	j	80002d2e <lfs_file_write+0x92>
    80002d8c:	549c                	lw	a5,40(s1)
    80002d8e:	00080737          	lui	a4,0x80
    80002d92:	8fd9                	or	a5,a5,a4
    80002d94:	d49c                	sw	a5,40(s1)
    80002d96:	744a                	ld	s0,176(sp)
    80002d98:	74aa                	ld	s1,168(sp)
    80002d9a:	790a                	ld	s2,160(sp)
    80002d9c:	6aaa                	ld	s5,136(sp)
    80002d9e:	7c46                	ld	s8,112(sp)
    80002da0:	7d06                	ld	s10,96(sp)
    80002da2:	a441                	j	80003022 <lfs_file_write+0x386>
    80002da4:	4796                	lw	a5,68(sp)
    80002da6:	c3ad                	beqz	a5,80002e08 <lfs_file_write+0x16c>
    80002da8:	37fd                	addw	a5,a5,-1
    80002daa:	c2be                	sw	a5,68(sp)
    80002dac:	00cc                	add	a1,sp,68
    80002dae:	8522                	mv	a0,s0
    80002db0:	812ff0ef          	jal	80001dc2 <lfs_ctz_index>
    80002db4:	4996                	lw	s3,68(sp)
    80002db6:	0019871b          	addw	a4,s3,1
    80002dba:	0007079b          	sext.w	a5,a4
    80002dbe:	c2ba                	sw	a4,68(sp)
    80002dc0:	6018                	ld	a4,0(s0)
    80002dc2:	5b18                	lw	a4,48(a4)
    80002dc4:	0cf70d63          	beq	a4,a5,80002e9e <lfs_file_write+0x202>
    80002dc8:	c3a1                	beqz	a5,80002e08 <lfs_file_write+0x16c>
    80002dca:	4901                	li	s2,0
    80002dcc:	a011                	j	80002dd0 <lfs_file_write+0x134>
    80002dce:	893e                	mv	s2,a5
    80002dd0:	4805                	li	a6,1
    80002dd2:	03f10793          	add	a5,sp,63
    80002dd6:	874a                	mv	a4,s2
    80002dd8:	4686                	lw	a3,64(sp)
    80002dda:	4601                	li	a2,0
    80002ddc:	6b22                	ld	s6,8(sp)
    80002dde:	85da                	mv	a1,s6
    80002de0:	8522                	mv	a0,s0
    80002de2:	f02fe0ef          	jal	800014e4 <lfs_cache_read>
    80002de6:	1e051d63          	bnez	a0,80002fe0 <lfs_file_write+0x344>
    80002dea:	4805                	li	a6,1
    80002dec:	03f10793          	add	a5,sp,63
    80002df0:	874a                	mv	a4,s2
    80002df2:	86d2                	mv	a3,s4
    80002df4:	865a                	mv	a2,s6
    80002df6:	75a2                	ld	a1,40(sp)
    80002df8:	8522                	mv	a0,s0
    80002dfa:	c5cff0ef          	jal	80002256 <lfs_cache_prog>
    80002dfe:	e935                	bnez	a0,80002e72 <lfs_file_write+0x1d6>
    80002e00:	0019079b          	addw	a5,s2,1
    80002e04:	fd2995e3          	bne	s3,s2,80002dce <lfs_file_write+0x132>
    80002e08:	0344a823          	sw	s4,48(s1)
    80002e0c:	d8dc                	sw	a5,52(s1)
    80002e0e:	549c                	lw	a5,40(s1)
    80002e10:	00020737          	lui	a4,0x20
    80002e14:	8fd9                	or	a5,a5,a4
    80002e16:	d49c                	sw	a5,40(s1)
    80002e18:	69ea                	ld	s3,152(sp)
    80002e1a:	6a4a                	ld	s4,144(sp)
    80002e1c:	6b0a                	ld	s6,128(sp)
    80002e1e:	7ca6                	ld	s9,104(sp)
    80002e20:	6de6                	ld	s11,88(sp)
    80002e22:	601c                	ld	a5,0(s0)
    80002e24:	5b9c                	lw	a5,48(a5)
    80002e26:	58d8                	lw	a4,52(s1)
    80002e28:	9f99                	subw	a5,a5,a4
    80002e2a:	893e                	mv	s2,a5
    80002e2c:	2781                	sext.w	a5,a5
    80002e2e:	00fc7363          	bgeu	s8,a5,80002e34 <lfs_file_write+0x198>
    80002e32:	8962                	mv	s2,s8
    80002e34:	2901                	sext.w	s2,s2
    80002e36:	884a                	mv	a6,s2
    80002e38:	67c2                	ld	a5,16(sp)
    80002e3a:	58d8                	lw	a4,52(s1)
    80002e3c:	5894                	lw	a3,48(s1)
    80002e3e:	6662                	ld	a2,24(sp)
    80002e40:	7582                	ld	a1,32(sp)
    80002e42:	8522                	mv	a0,s0
    80002e44:	c12ff0ef          	jal	80002256 <lfs_cache_prog>
    80002e48:	1e050163          	beqz	a0,8000302a <lfs_file_write+0x38e>
    80002e4c:	1d551063          	bne	a0,s5,8000300c <lfs_file_write+0x370>
    80002e50:	85a6                	mv	a1,s1
    80002e52:	8522                	mv	a0,s0
    80002e54:	d51ff0ef          	jal	80002ba4 <lfs_file_relocate>
    80002e58:	dd79                	beqz	a0,80002e36 <lfs_file_write+0x19a>
    80002e5a:	549c                	lw	a5,40(s1)
    80002e5c:	00080737          	lui	a4,0x80
    80002e60:	8fd9                	or	a5,a5,a4
    80002e62:	d49c                	sw	a5,40(s1)
    80002e64:	744a                	ld	s0,176(sp)
    80002e66:	74aa                	ld	s1,168(sp)
    80002e68:	790a                	ld	s2,160(sp)
    80002e6a:	6aaa                	ld	s5,136(sp)
    80002e6c:	7c46                	ld	s8,112(sp)
    80002e6e:	7d06                	ld	s10,96(sp)
    80002e70:	aa4d                	j	80003022 <lfs_file_write+0x386>
    80002e72:	fcc00793          	li	a5,-52
    80002e76:	16f51563          	bne	a0,a5,80002fe0 <lfs_file_write+0x344>
    80002e7a:	03942823          	sw	s9,48(s0)
    80002e7e:	00ac                	add	a1,sp,72
    80002e80:	8522                	mv	a0,s0
    80002e82:	bb1ff0ef          	jal	80002a32 <lfs_alloc>
    80002e86:	14051d63          	bnez	a0,80002fe0 <lfs_file_write+0x344>
    80002e8a:	4a26                	lw	s4,72(sp)
    80002e8c:	85d2                	mv	a1,s4
    80002e8e:	8522                	mv	a0,s0
    80002e90:	be0fe0ef          	jal	80001270 <lfs_bd_erase>
    80002e94:	f00508e3          	beqz	a0,80002da4 <lfs_file_write+0x108>
    80002e98:	ffb501e3          	beq	a0,s11,80002e7a <lfs_file_write+0x1de>
    80002e9c:	a291                	j	80002fe0 <lfs_file_write+0x344>
    80002e9e:	0005079b          	sext.w	a5,a0
    80002ea2:	2505                	addw	a0,a0,1
    80002ea4:	fff7c793          	not	a5,a5
    80002ea8:	8fe9                	and	a5,a5,a0
    80002eaa:	2781                	sext.w	a5,a5
    80002eac:	66c1                	lui	a3,0x10
    80002eae:	16fd                	add	a3,a3,-1 # ffff <_start-0x7fff0001>
    80002eb0:	00f6b6b3          	sltu	a3,a3,a5
    80002eb4:	0046969b          	sllw	a3,a3,0x4
    80002eb8:	00d7d7bb          	srlw	a5,a5,a3
    80002ebc:	0007871b          	sext.w	a4,a5
    80002ec0:	0ff00613          	li	a2,255
    80002ec4:	00e63733          	sltu	a4,a2,a4
    80002ec8:	0037171b          	sllw	a4,a4,0x3
    80002ecc:	00e7d7bb          	srlw	a5,a5,a4
    80002ed0:	0007861b          	sext.w	a2,a5
    80002ed4:	00d76933          	or	s2,a4,a3
    80002ed8:	2901                	sext.w	s2,s2
    80002eda:	473d                	li	a4,15
    80002edc:	00c736b3          	sltu	a3,a4,a2
    80002ee0:	0026969b          	sllw	a3,a3,0x2
    80002ee4:	00d7d7bb          	srlw	a5,a5,a3
    80002ee8:	0007871b          	sext.w	a4,a5
    80002eec:	00d96933          	or	s2,s2,a3
    80002ef0:	2901                	sext.w	s2,s2
    80002ef2:	468d                	li	a3,3
    80002ef4:	00e6b733          	sltu	a4,a3,a4
    80002ef8:	0017171b          	sllw	a4,a4,0x1
    80002efc:	00e7d7bb          	srlw	a5,a5,a4
    80002f00:	0017d79b          	srlw	a5,a5,0x1
    80002f04:	00e96933          	or	s2,s2,a4
    80002f08:	00f96933          	or	s2,s2,a5
    80002f0c:	2901                	sext.w	s2,s2
    80002f0e:	4981                	li	s3,0
    80002f10:	a819                	j	80002f26 <lfs_file_write+0x28a>
    80002f12:	fcc00793          	li	a5,-52
    80002f16:	f6f502e3          	beq	a0,a5,80002e7a <lfs_file_write+0x1de>
    80002f1a:	a0d9                	j	80002fe0 <lfs_file_write+0x344>
    80002f1c:	0019879b          	addw	a5,s3,1
    80002f20:	0f390163          	beq	s2,s3,80003002 <lfs_file_write+0x366>
    80002f24:	89be                	mv	s3,a5
    80002f26:	4706                	lw	a4,64(sp)
    80002f28:	00875793          	srl	a5,a4,0x8
    80002f2c:	0ff7f793          	zext.b	a5,a5
    80002f30:	0087979b          	sllw	a5,a5,0x8
    80002f34:	01075693          	srl	a3,a4,0x10
    80002f38:	0ff6f693          	zext.b	a3,a3
    80002f3c:	0106969b          	sllw	a3,a3,0x10
    80002f40:	8fd5                	or	a5,a5,a3
    80002f42:	0ff77693          	zext.b	a3,a4
    80002f46:	8fd5                	or	a5,a5,a3
    80002f48:	0187571b          	srlw	a4,a4,0x18
    80002f4c:	0187171b          	sllw	a4,a4,0x18
    80002f50:	8fd9                	or	a5,a5,a4
    80002f52:	c0be                	sw	a5,64(sp)
    80002f54:	00299b1b          	sllw	s6,s3,0x2
    80002f58:	4811                	li	a6,4
    80002f5a:	009c                	add	a5,sp,64
    80002f5c:	875a                	mv	a4,s6
    80002f5e:	86d2                	mv	a3,s4
    80002f60:	6622                	ld	a2,8(sp)
    80002f62:	75a2                	ld	a1,40(sp)
    80002f64:	8522                	mv	a0,s0
    80002f66:	af0ff0ef          	jal	80002256 <lfs_cache_prog>
    80002f6a:	4786                	lw	a5,64(sp)
    80002f6c:	0087d693          	srl	a3,a5,0x8
    80002f70:	0ff6f693          	zext.b	a3,a3
    80002f74:	0086969b          	sllw	a3,a3,0x8
    80002f78:	0107d713          	srl	a4,a5,0x10
    80002f7c:	0ff77713          	zext.b	a4,a4
    80002f80:	0107171b          	sllw	a4,a4,0x10
    80002f84:	8ed9                	or	a3,a3,a4
    80002f86:	0ff7f713          	zext.b	a4,a5
    80002f8a:	8ed9                	or	a3,a3,a4
    80002f8c:	0187d79b          	srlw	a5,a5,0x18
    80002f90:	0187979b          	sllw	a5,a5,0x18
    80002f94:	8edd                	or	a3,a3,a5
    80002f96:	2681                	sext.w	a3,a3
    80002f98:	c0b6                	sw	a3,64(sp)
    80002f9a:	fd25                	bnez	a0,80002f12 <lfs_file_write+0x276>
    80002f9c:	f93900e3          	beq	s2,s3,80002f1c <lfs_file_write+0x280>
    80002fa0:	4811                	li	a6,4
    80002fa2:	009c                	add	a5,sp,64
    80002fa4:	875a                	mv	a4,s6
    80002fa6:	4601                	li	a2,0
    80002fa8:	65a2                	ld	a1,8(sp)
    80002faa:	8522                	mv	a0,s0
    80002fac:	d38fe0ef          	jal	800014e4 <lfs_cache_read>
    80002fb0:	4706                	lw	a4,64(sp)
    80002fb2:	00875793          	srl	a5,a4,0x8
    80002fb6:	0ff7f793          	zext.b	a5,a5
    80002fba:	0087979b          	sllw	a5,a5,0x8
    80002fbe:	01075693          	srl	a3,a4,0x10
    80002fc2:	0ff6f693          	zext.b	a3,a3
    80002fc6:	0106969b          	sllw	a3,a3,0x10
    80002fca:	8fd5                	or	a5,a5,a3
    80002fcc:	0ff77693          	zext.b	a3,a4
    80002fd0:	8fd5                	or	a5,a5,a3
    80002fd2:	0187571b          	srlw	a4,a4,0x18
    80002fd6:	0187171b          	sllw	a4,a4,0x18
    80002fda:	8fd9                	or	a5,a5,a4
    80002fdc:	c0be                	sw	a5,64(sp)
    80002fde:	dd1d                	beqz	a0,80002f1c <lfs_file_write+0x280>
    80002fe0:	549c                	lw	a5,40(s1)
    80002fe2:	00080737          	lui	a4,0x80
    80002fe6:	8fd9                	or	a5,a5,a4
    80002fe8:	d49c                	sw	a5,40(s1)
    80002fea:	744a                	ld	s0,176(sp)
    80002fec:	74aa                	ld	s1,168(sp)
    80002fee:	790a                	ld	s2,160(sp)
    80002ff0:	69ea                	ld	s3,152(sp)
    80002ff2:	6a4a                	ld	s4,144(sp)
    80002ff4:	6aaa                	ld	s5,136(sp)
    80002ff6:	6b0a                	ld	s6,128(sp)
    80002ff8:	7c46                	ld	s8,112(sp)
    80002ffa:	7ca6                	ld	s9,104(sp)
    80002ffc:	7d06                	ld	s10,96(sp)
    80002ffe:	6de6                	ld	s11,88(sp)
    80003000:	a00d                	j	80003022 <lfs_file_write+0x386>
    80003002:	0019079b          	addw	a5,s2,1
    80003006:	0027979b          	sllw	a5,a5,0x2
    8000300a:	bbfd                	j	80002e08 <lfs_file_write+0x16c>
    8000300c:	549c                	lw	a5,40(s1)
    8000300e:	00080737          	lui	a4,0x80
    80003012:	8fd9                	or	a5,a5,a4
    80003014:	d49c                	sw	a5,40(s1)
    80003016:	744a                	ld	s0,176(sp)
    80003018:	74aa                	ld	s1,168(sp)
    8000301a:	790a                	ld	s2,160(sp)
    8000301c:	6aaa                	ld	s5,136(sp)
    8000301e:	7c46                	ld	s8,112(sp)
    80003020:	7d06                	ld	s10,96(sp)
    80003022:	70ea                	ld	ra,184(sp)
    80003024:	7be6                	ld	s7,120(sp)
    80003026:	6129                	add	sp,sp,192
    80003028:	8082                	ret
    8000302a:	54dc                	lw	a5,44(s1)
    8000302c:	012787bb          	addw	a5,a5,s2
    80003030:	d4dc                	sw	a5,44(s1)
    80003032:	58dc                	lw	a5,52(s1)
    80003034:	012787bb          	addw	a5,a5,s2
    80003038:	d8dc                	sw	a5,52(s1)
    8000303a:	02091793          	sll	a5,s2,0x20
    8000303e:	9381                	srl	a5,a5,0x20
    80003040:	6742                	ld	a4,16(sp)
    80003042:	97ba                	add	a5,a5,a4
    80003044:	e83e                	sd	a5,16(sp)
    80003046:	412c0c3b          	subw	s8,s8,s2
    8000304a:	601c                	ld	a5,0(s0)
    8000304c:	5bdc                	lw	a5,52(a5)
    8000304e:	c47c                	sw	a5,76(s0)
    80003050:	040c1163          	bnez	s8,80003092 <lfs_file_write+0x3f6>
    80003054:	6aaa                	ld	s5,136(sp)
    80003056:	7d06                	ld	s10,96(sp)
    80003058:	549c                	lw	a5,40(s1)
    8000305a:	fff80737          	lui	a4,0xfff80
    8000305e:	177d                	add	a4,a4,-1 # fffffffffff7ffff <_sp+0xffffffff70f7ffff>
    80003060:	8ff9                	and	a5,a5,a4
    80003062:	d49c                	sw	a5,40(s1)
    80003064:	000b851b          	sext.w	a0,s7
    80003068:	744a                	ld	s0,176(sp)
    8000306a:	74aa                	ld	s1,168(sp)
    8000306c:	790a                	ld	s2,160(sp)
    8000306e:	7c46                	ld	s8,112(sp)
    80003070:	bf4d                	j	80003022 <lfs_file_write+0x386>
    80003072:	f8e2                	sd	s8,112(sp)
    80003074:	8c5e                	mv	s8,s7
    80003076:	fe0b81e3          	beqz	s7,80003058 <lfs_file_write+0x3bc>
    8000307a:	e556                	sd	s5,136(sp)
    8000307c:	f0ea                	sd	s10,96(sp)
    8000307e:	00020d37          	lui	s10,0x20
    80003082:	02040793          	add	a5,s0,32
    80003086:	ec3e                	sd	a5,24(sp)
    80003088:	03848793          	add	a5,s1,56
    8000308c:	f03e                	sd	a5,32(sp)
    8000308e:	fcc00a93          	li	s5,-52
    80003092:	549c                	lw	a5,40(s1)
    80003094:	01a7f7b3          	and	a5,a5,s10
    80003098:	2781                	sext.w	a5,a5
    8000309a:	c80783e3          	beqz	a5,80002d20 <lfs_file_write+0x84>
    8000309e:	601c                	ld	a5,0(s0)
    800030a0:	58d8                	lw	a4,52(s1)
    800030a2:	5b9c                	lw	a5,48(a5)
    800030a4:	d6f71fe3          	bne	a4,a5,80002e22 <lfs_file_write+0x186>
    800030a8:	ed4e                	sd	s3,152(sp)
    800030aa:	e952                	sd	s4,144(sp)
    800030ac:	e15a                	sd	s6,128(sp)
    800030ae:	f4e6                	sd	s9,104(sp)
    800030b0:	ecee                	sd	s11,88(sp)
    800030b2:	b9b5                	j	80002d2e <lfs_file_write+0x92>
    800030b4:	f8e2                	sd	s8,112(sp)
    800030b6:	bf7d                	j	80003074 <lfs_file_write+0x3d8>
    800030b8:	555d                	li	a0,-9
    800030ba:	b7a5                	j	80003022 <lfs_file_write+0x386>
    800030bc:	5515                	li	a0,-27
    800030be:	744a                	ld	s0,176(sp)
    800030c0:	74aa                	ld	s1,168(sp)
    800030c2:	790a                	ld	s2,160(sp)
    800030c4:	bfb9                	j	80003022 <lfs_file_write+0x386>
    800030c6:	744a                	ld	s0,176(sp)
    800030c8:	74aa                	ld	s1,168(sp)
    800030ca:	790a                	ld	s2,160(sp)
    800030cc:	bf99                	j	80003022 <lfs_file_write+0x386>

00000000800030ce <lfs_file_flush>:
    800030ce:	7175                	add	sp,sp,-144
    800030d0:	e506                	sd	ra,136(sp)
    800030d2:	e122                	sd	s0,128(sp)
    800030d4:	fca6                	sd	s1,120(sp)
    800030d6:	842a                	mv	s0,a0
    800030d8:	84ae                	mv	s1,a1
    800030da:	559c                	lw	a5,40(a1)
    800030dc:	02d79713          	sll	a4,a5,0x2d
    800030e0:	00075963          	bgez	a4,800030f2 <lfs_file_flush+0x24>
    800030e4:	577d                	li	a4,-1
    800030e6:	dd98                	sw	a4,56(a1)
    800030e8:	fffc0737          	lui	a4,0xfffc0
    800030ec:	177d                	add	a4,a4,-1 # fffffffffffbffff <_sp+0xffffffff70fbffff>
    800030ee:	8ff9                	and	a5,a5,a4
    800030f0:	d59c                	sw	a5,40(a1)
    800030f2:	549c                	lw	a5,40(s1)
    800030f4:	4501                	li	a0,0
    800030f6:	02e79713          	sll	a4,a5,0x2e
    800030fa:	0c075a63          	bgez	a4,800031ce <lfs_file_flush+0x100>
    800030fe:	f8ca                	sd	s2,112(sp)
    80003100:	f4ce                	sd	s3,104(sp)
    80003102:	02c4a983          	lw	s3,44(s1)
    80003106:	e402                	sd	zero,8(sp)
    80003108:	e802                	sd	zero,16(sp)
    8000310a:	ec02                	sd	zero,24(sp)
    8000310c:	f002                	sd	zero,32(sp)
    8000310e:	f402                	sd	zero,40(sp)
    80003110:	fc02                	sd	zero,56(sp)
    80003112:	48dc                	lw	a5,20(s1)
    80003114:	ce3e                	sw	a5,28(sp)
    80003116:	4c9c                	lw	a5,24(s1)
    80003118:	d03e                	sw	a5,32(sp)
    8000311a:	4785                	li	a5,1
    8000311c:	d83e                	sw	a5,48(sp)
    8000311e:	da4e                	sw	s3,52(sp)
    80003120:	701c                	ld	a5,32(s0)
    80003122:	e0be                	sd	a5,64(sp)
    80003124:	741c                	ld	a5,40(s0)
    80003126:	e4be                	sd	a5,72(sp)
    80003128:	57fd                	li	a5,-1
    8000312a:	d01c                	sw	a5,32(s0)
    8000312c:	54d8                	lw	a4,44(s1)
    8000312e:	4c9c                	lw	a5,24(s1)
    80003130:	04f77163          	bgeu	a4,a5,80003172 <lfs_file_flush+0xa4>
    80003134:	597d                	li	s2,-1
    80003136:	a029                	j	80003140 <lfs_file_flush+0x72>
    80003138:	54d8                	lw	a4,44(s1)
    8000313a:	4c9c                	lw	a5,24(s1)
    8000313c:	02f77b63          	bgeu	a4,a5,80003172 <lfs_file_flush+0xa4>
    80003140:	4685                	li	a3,1
    80003142:	00710613          	add	a2,sp,7
    80003146:	002c                	add	a1,sp,8
    80003148:	8522                	mv	a0,s0
    8000314a:	09e000ef          	jal	800031e8 <lfs_file_read>
    8000314e:	06054e63          	bltz	a0,800031ca <lfs_file_flush+0xfc>
    80003152:	4685                	li	a3,1
    80003154:	00710613          	add	a2,sp,7
    80003158:	85a6                	mv	a1,s1
    8000315a:	8522                	mv	a0,s0
    8000315c:	b41ff0ef          	jal	80002c9c <lfs_file_write>
    80003160:	06054c63          	bltz	a0,800031d8 <lfs_file_flush+0x10a>
    80003164:	501c                	lw	a5,32(s0)
    80003166:	fd2789e3          	beq	a5,s2,80003138 <lfs_file_flush+0x6a>
    8000316a:	c0ca                	sw	s2,64(sp)
    8000316c:	03242023          	sw	s2,32(s0)
    80003170:	b7e1                	j	80003138 <lfs_file_flush+0x6a>
    80003172:	f0d2                	sd	s4,96(sp)
    80003174:	ecd6                	sd	s5,88(sp)
    80003176:	02040a13          	add	s4,s0,32
    8000317a:	03848913          	add	s2,s1,56
    8000317e:	fcc00a93          	li	s5,-52
    80003182:	8652                	mv	a2,s4
    80003184:	85ca                	mv	a1,s2
    80003186:	8522                	mv	a0,s0
    80003188:	840ff0ef          	jal	800021c8 <lfs_cache_flush>
    8000318c:	cd09                	beqz	a0,800031a6 <lfs_file_flush+0xd8>
    8000318e:	05551863          	bne	a0,s5,800031de <lfs_file_flush+0x110>
    80003192:	85a6                	mv	a1,s1
    80003194:	8522                	mv	a0,s0
    80003196:	a0fff0ef          	jal	80002ba4 <lfs_file_relocate>
    8000319a:	d565                	beqz	a0,80003182 <lfs_file_flush+0xb4>
    8000319c:	7946                	ld	s2,112(sp)
    8000319e:	79a6                	ld	s3,104(sp)
    800031a0:	7a06                	ld	s4,96(sp)
    800031a2:	6ae6                	ld	s5,88(sp)
    800031a4:	a02d                	j	800031ce <lfs_file_flush+0x100>
    800031a6:	589c                	lw	a5,48(s1)
    800031a8:	c8dc                	sw	a5,20(s1)
    800031aa:	54dc                	lw	a5,44(s1)
    800031ac:	cc9c                	sw	a5,24(s1)
    800031ae:	549c                	lw	a5,40(s1)
    800031b0:	7701                	lui	a4,0xfffe0
    800031b2:	177d                	add	a4,a4,-1 # fffffffffffdffff <_sp+0xffffffff70fdffff>
    800031b4:	8ff9                	and	a5,a5,a4
    800031b6:	6741                	lui	a4,0x10
    800031b8:	8fd9                	or	a5,a5,a4
    800031ba:	d49c                	sw	a5,40(s1)
    800031bc:	0334a623          	sw	s3,44(s1)
    800031c0:	7946                	ld	s2,112(sp)
    800031c2:	79a6                	ld	s3,104(sp)
    800031c4:	7a06                	ld	s4,96(sp)
    800031c6:	6ae6                	ld	s5,88(sp)
    800031c8:	a019                	j	800031ce <lfs_file_flush+0x100>
    800031ca:	7946                	ld	s2,112(sp)
    800031cc:	79a6                	ld	s3,104(sp)
    800031ce:	60aa                	ld	ra,136(sp)
    800031d0:	640a                	ld	s0,128(sp)
    800031d2:	74e6                	ld	s1,120(sp)
    800031d4:	6149                	add	sp,sp,144
    800031d6:	8082                	ret
    800031d8:	7946                	ld	s2,112(sp)
    800031da:	79a6                	ld	s3,104(sp)
    800031dc:	bfcd                	j	800031ce <lfs_file_flush+0x100>
    800031de:	7946                	ld	s2,112(sp)
    800031e0:	79a6                	ld	s3,104(sp)
    800031e2:	7a06                	ld	s4,96(sp)
    800031e4:	6ae6                	ld	s5,88(sp)
    800031e6:	b7e5                	j	800031ce <lfs_file_flush+0x100>

00000000800031e8 <lfs_file_read>:
    800031e8:	711d                	add	sp,sp,-96
    800031ea:	ec86                	sd	ra,88(sp)
    800031ec:	e4a6                	sd	s1,72(sp)
    800031ee:	84b6                	mv	s1,a3
    800031f0:	559c                	lw	a5,40(a1)
    800031f2:	0037f693          	and	a3,a5,3
    800031f6:	4709                	li	a4,2
    800031f8:	0ee68a63          	beq	a3,a4,800032ec <lfs_file_read+0x104>
    800031fc:	e8a2                	sd	s0,80(sp)
    800031fe:	e0ca                	sd	s2,64(sp)
    80003200:	fc4e                	sd	s3,56(sp)
    80003202:	892a                	mv	s2,a0
    80003204:	842e                	mv	s0,a1
    80003206:	89b2                	mv	s3,a2
    80003208:	02e79713          	sll	a4,a5,0x2e
    8000320c:	02074f63          	bltz	a4,8000324a <lfs_file_read+0x62>
    80003210:	5458                	lw	a4,44(s0)
    80003212:	4c1c                	lw	a5,24(s0)
    80003214:	0cf77e63          	bgeu	a4,a5,800032f0 <lfs_file_read+0x108>
    80003218:	e862                	sd	s8,16(sp)
    8000321a:	9f99                	subw	a5,a5,a4
    8000321c:	8c3e                	mv	s8,a5
    8000321e:	2781                	sext.w	a5,a5
    80003220:	00f4f363          	bgeu	s1,a5,80003226 <lfs_file_read+0x3e>
    80003224:	8c26                	mv	s8,s1
    80003226:	2c01                	sext.w	s8,s8
    80003228:	0a0c0b63          	beqz	s8,800032de <lfs_file_read+0xf6>
    8000322c:	f852                	sd	s4,48(sp)
    8000322e:	f456                	sd	s5,40(sp)
    80003230:	f05a                	sd	s6,32(sp)
    80003232:	ec5e                	sd	s7,24(sp)
    80003234:	e466                	sd	s9,8(sp)
    80003236:	84e2                	mv	s1,s8
    80003238:	00040ab7          	lui	s5,0x40
